	.file	"main.cpp"
	.intel_syntax noprefix
	.text
	.globl	ba
	.data
	.align 32
	.type	ba, @object
	.size	ba, 35
ba:
	.byte	0
	.byte	1
	.byte	1
	.byte	1
	.byte	0
	.byte	1
	.byte	0
	.byte	0
	.byte	0
	.byte	1
	.byte	1
	.byte	0
	.byte	0
	.byte	0
	.byte	1
	.byte	1
	.byte	1
	.byte	1
	.byte	1
	.byte	1
	.byte	1
	.byte	0
	.byte	0
	.byte	0
	.byte	1
	.byte	1
	.byte	0
	.byte	0
	.byte	0
	.byte	1
	.byte	1
	.byte	0
	.byte	0
	.byte	0
	.byte	1
	.globl	bb
	.align 32
	.type	bb, @object
	.size	bb, 35
bb:
	.byte	1
	.byte	1
	.byte	1
	.byte	1
	.byte	0
	.byte	1
	.byte	0
	.byte	0
	.byte	0
	.byte	1
	.byte	1
	.byte	0
	.byte	0
	.byte	0
	.byte	1
	.byte	1
	.byte	1
	.byte	1
	.byte	1
	.byte	0
	.byte	1
	.byte	0
	.byte	0
	.byte	0
	.byte	1
	.byte	1
	.byte	0
	.byte	0
	.byte	0
	.byte	1
	.byte	1
	.byte	1
	.byte	1
	.byte	1
	.byte	0
	.globl	bc
	.align 32
	.type	bc, @object
	.size	bc, 35
bc:
	.byte	0
	.byte	1
	.byte	1
	.byte	1
	.byte	1
	.byte	1
	.byte	0
	.byte	0
	.byte	0
	.byte	0
	.byte	1
	.byte	0
	.byte	0
	.byte	0
	.byte	0
	.byte	1
	.byte	0
	.byte	0
	.byte	0
	.byte	0
	.byte	1
	.byte	0
	.byte	0
	.byte	0
	.byte	0
	.byte	1
	.byte	0
	.byte	0
	.byte	0
	.byte	0
	.byte	0
	.byte	1
	.byte	1
	.byte	1
	.byte	1
	.globl	bd
	.align 32
	.type	bd, @object
	.size	bd, 35
bd:
	.byte	1
	.byte	1
	.byte	1
	.byte	1
	.byte	0
	.byte	1
	.byte	0
	.byte	0
	.byte	0
	.byte	1
	.byte	1
	.byte	0
	.byte	0
	.byte	0
	.byte	1
	.byte	1
	.byte	0
	.byte	0
	.byte	0
	.byte	1
	.byte	1
	.byte	0
	.byte	0
	.byte	0
	.byte	1
	.byte	1
	.byte	0
	.byte	0
	.byte	0
	.byte	1
	.byte	1
	.byte	1
	.byte	1
	.byte	1
	.byte	0
	.globl	be
	.align 32
	.type	be, @object
	.size	be, 35
be:
	.byte	1
	.byte	1
	.byte	1
	.byte	1
	.byte	1
	.byte	1
	.byte	0
	.byte	0
	.byte	0
	.byte	0
	.byte	1
	.byte	0
	.byte	0
	.byte	0
	.byte	0
	.byte	1
	.byte	1
	.byte	1
	.byte	1
	.byte	1
	.byte	1
	.byte	0
	.byte	0
	.byte	0
	.byte	0
	.byte	1
	.byte	0
	.byte	0
	.byte	0
	.byte	0
	.byte	1
	.byte	1
	.byte	1
	.byte	1
	.byte	1
	.globl	bf
	.align 32
	.type	bf, @object
	.size	bf, 35
bf:
	.byte	1
	.byte	1
	.byte	1
	.byte	1
	.byte	1
	.byte	1
	.byte	0
	.byte	0
	.byte	0
	.byte	0
	.byte	1
	.byte	0
	.byte	0
	.byte	0
	.byte	0
	.byte	1
	.byte	1
	.byte	1
	.byte	0
	.byte	0
	.byte	1
	.byte	0
	.byte	0
	.byte	0
	.byte	0
	.byte	1
	.byte	0
	.byte	0
	.byte	0
	.byte	0
	.byte	1
	.byte	0
	.byte	0
	.byte	0
	.byte	0
	.globl	bg
	.align 32
	.type	bg, @object
	.size	bg, 35
bg:
	.byte	0
	.byte	1
	.byte	1
	.byte	1
	.byte	1
	.byte	1
	.byte	0
	.byte	0
	.byte	0
	.byte	0
	.byte	1
	.byte	0
	.byte	0
	.byte	0
	.byte	0
	.byte	1
	.byte	0
	.byte	1
	.byte	1
	.byte	1
	.byte	1
	.byte	0
	.byte	0
	.byte	0
	.byte	1
	.byte	1
	.byte	0
	.byte	0
	.byte	0
	.byte	1
	.byte	0
	.byte	1
	.byte	1
	.byte	1
	.byte	0
	.globl	bh
	.align 32
	.type	bh, @object
	.size	bh, 35
bh:
	.byte	1
	.byte	0
	.byte	0
	.byte	0
	.byte	1
	.byte	1
	.byte	0
	.byte	0
	.byte	0
	.byte	1
	.byte	1
	.byte	0
	.byte	0
	.byte	0
	.byte	1
	.byte	1
	.byte	1
	.byte	1
	.byte	1
	.byte	1
	.byte	1
	.byte	0
	.byte	0
	.byte	0
	.byte	1
	.byte	1
	.byte	0
	.byte	0
	.byte	0
	.byte	1
	.byte	1
	.byte	0
	.byte	0
	.byte	0
	.byte	1
	.globl	li
	.align 32
	.type	li, @object
	.size	li, 35
li:
	.byte	0
	.byte	0
	.byte	1
	.byte	0
	.byte	0
	.byte	0
	.byte	0
	.byte	0
	.byte	0
	.byte	0
	.byte	0
	.byte	0
	.byte	1
	.byte	0
	.byte	0
	.byte	0
	.byte	0
	.byte	1
	.byte	0
	.byte	0
	.byte	0
	.byte	0
	.byte	1
	.byte	0
	.byte	0
	.byte	0
	.byte	0
	.byte	1
	.byte	0
	.byte	0
	.byte	0
	.byte	0
	.byte	1
	.byte	0
	.byte	0
	.globl	lj
	.align 32
	.type	lj, @object
	.size	lj, 35
lj:
	.byte	0
	.byte	0
	.byte	0
	.byte	1
	.byte	0
	.byte	0
	.byte	0
	.byte	0
	.byte	0
	.byte	0
	.byte	0
	.byte	0
	.byte	0
	.byte	1
	.byte	0
	.byte	0
	.byte	0
	.byte	0
	.byte	1
	.byte	0
	.byte	0
	.byte	0
	.byte	0
	.byte	1
	.byte	0
	.byte	0
	.byte	0
	.byte	0
	.byte	1
	.byte	0
	.byte	0
	.byte	1
	.byte	1
	.byte	0
	.byte	0
	.globl	bk
	.align 32
	.type	bk, @object
	.size	bk, 35
bk:
	.byte	1
	.byte	0
	.byte	0
	.byte	0
	.byte	1
	.byte	1
	.byte	0
	.byte	0
	.byte	1
	.byte	0
	.byte	1
	.byte	0
	.byte	1
	.byte	0
	.byte	0
	.byte	1
	.byte	1
	.byte	0
	.byte	0
	.byte	0
	.byte	1
	.byte	0
	.byte	1
	.byte	0
	.byte	0
	.byte	1
	.byte	0
	.byte	0
	.byte	1
	.byte	0
	.byte	1
	.byte	0
	.byte	0
	.byte	0
	.byte	1
	.globl	bl
	.align 32
	.type	bl, @object
	.size	bl, 35
bl:
	.byte	1
	.byte	0
	.byte	0
	.byte	0
	.byte	0
	.byte	1
	.byte	0
	.byte	0
	.byte	0
	.byte	0
	.byte	1
	.byte	0
	.byte	0
	.byte	0
	.byte	0
	.byte	1
	.byte	0
	.byte	0
	.byte	0
	.byte	0
	.byte	1
	.byte	0
	.byte	0
	.byte	0
	.byte	0
	.byte	1
	.byte	0
	.byte	0
	.byte	0
	.byte	0
	.byte	1
	.byte	1
	.byte	1
	.byte	1
	.byte	1
	.globl	bm
	.align 32
	.type	bm, @object
	.size	bm, 35
bm:
	.byte	1
	.byte	1
	.byte	0
	.byte	1
	.byte	1
	.byte	1
	.byte	0
	.byte	1
	.byte	0
	.byte	1
	.byte	1
	.byte	0
	.byte	1
	.byte	0
	.byte	1
	.byte	1
	.byte	0
	.byte	0
	.byte	0
	.byte	1
	.byte	1
	.byte	0
	.byte	0
	.byte	0
	.byte	1
	.byte	1
	.byte	0
	.byte	0
	.byte	0
	.byte	1
	.byte	1
	.byte	0
	.byte	0
	.byte	0
	.byte	1
	.globl	bn
	.align 32
	.type	bn, @object
	.size	bn, 35
bn:
	.byte	1
	.byte	0
	.byte	0
	.byte	0
	.byte	1
	.byte	1
	.byte	1
	.byte	0
	.byte	0
	.byte	1
	.byte	1
	.byte	1
	.byte	0
	.byte	0
	.byte	1
	.byte	1
	.byte	0
	.byte	1
	.byte	0
	.byte	1
	.byte	1
	.byte	0
	.byte	0
	.byte	1
	.byte	1
	.byte	1
	.byte	0
	.byte	0
	.byte	1
	.byte	1
	.byte	1
	.byte	0
	.byte	0
	.byte	0
	.byte	1
	.globl	bo
	.align 32
	.type	bo, @object
	.size	bo, 35
bo:
	.byte	0
	.byte	1
	.byte	1
	.byte	1
	.byte	0
	.byte	1
	.byte	0
	.byte	0
	.byte	0
	.byte	1
	.byte	1
	.byte	0
	.byte	0
	.byte	0
	.byte	1
	.byte	1
	.byte	0
	.byte	0
	.byte	0
	.byte	1
	.byte	1
	.byte	0
	.byte	0
	.byte	0
	.byte	1
	.byte	1
	.byte	0
	.byte	0
	.byte	0
	.byte	1
	.byte	0
	.byte	1
	.byte	1
	.byte	1
	.byte	0
	.globl	bp
	.align 32
	.type	bp, @object
	.size	bp, 35
bp:
	.byte	1
	.byte	1
	.byte	1
	.byte	1
	.byte	0
	.byte	1
	.byte	0
	.byte	0
	.byte	0
	.byte	1
	.byte	1
	.byte	0
	.byte	0
	.byte	0
	.byte	1
	.byte	1
	.byte	1
	.byte	1
	.byte	1
	.byte	0
	.byte	1
	.byte	0
	.byte	0
	.byte	0
	.byte	0
	.byte	1
	.byte	0
	.byte	0
	.byte	0
	.byte	0
	.byte	1
	.byte	0
	.byte	0
	.byte	0
	.byte	0
	.globl	lq
	.align 32
	.type	lq, @object
	.size	lq, 35
lq:
	.byte	0
	.byte	1
	.byte	1
	.byte	0
	.byte	1
	.byte	1
	.byte	0
	.byte	0
	.byte	1
	.byte	1
	.byte	1
	.byte	0
	.byte	0
	.byte	1
	.byte	1
	.byte	0
	.byte	1
	.byte	1
	.byte	0
	.byte	1
	.byte	0
	.byte	0
	.byte	0
	.byte	0
	.byte	1
	.byte	0
	.byte	0
	.byte	0
	.byte	0
	.byte	1
	.byte	0
	.byte	0
	.byte	0
	.byte	0
	.byte	1
	.globl	br
	.align 32
	.type	br, @object
	.size	br, 35
br:
	.byte	1
	.byte	1
	.byte	1
	.byte	1
	.byte	0
	.byte	1
	.byte	0
	.byte	0
	.byte	0
	.byte	1
	.byte	1
	.byte	0
	.byte	0
	.byte	0
	.byte	1
	.byte	1
	.byte	1
	.byte	1
	.byte	1
	.byte	0
	.byte	1
	.byte	0
	.byte	1
	.byte	0
	.byte	0
	.byte	1
	.byte	0
	.byte	0
	.byte	1
	.byte	0
	.byte	1
	.byte	0
	.byte	0
	.byte	0
	.byte	1
	.globl	bs
	.align 32
	.type	bs, @object
	.size	bs, 35
bs:
	.byte	0
	.byte	1
	.byte	1
	.byte	1
	.byte	0
	.byte	1
	.byte	0
	.byte	0
	.byte	0
	.byte	1
	.byte	1
	.byte	0
	.byte	0
	.byte	0
	.byte	0
	.byte	0
	.byte	1
	.byte	1
	.byte	1
	.byte	0
	.byte	0
	.byte	0
	.byte	0
	.byte	0
	.byte	1
	.byte	1
	.byte	0
	.byte	0
	.byte	0
	.byte	1
	.byte	0
	.byte	1
	.byte	1
	.byte	1
	.byte	0
	.globl	bt
	.align 32
	.type	bt, @object
	.size	bt, 35
bt:
	.byte	1
	.byte	1
	.byte	1
	.byte	1
	.byte	1
	.byte	0
	.byte	0
	.byte	1
	.byte	0
	.byte	0
	.byte	0
	.byte	0
	.byte	1
	.byte	0
	.byte	0
	.byte	0
	.byte	0
	.byte	1
	.byte	0
	.byte	0
	.byte	0
	.byte	0
	.byte	1
	.byte	0
	.byte	0
	.byte	0
	.byte	0
	.byte	1
	.byte	0
	.byte	0
	.byte	0
	.byte	0
	.byte	1
	.byte	0
	.byte	0
	.globl	bu
	.align 32
	.type	bu, @object
	.size	bu, 35
bu:
	.byte	1
	.byte	0
	.byte	0
	.byte	0
	.byte	1
	.byte	1
	.byte	0
	.byte	0
	.byte	0
	.byte	1
	.byte	1
	.byte	0
	.byte	0
	.byte	0
	.byte	1
	.byte	1
	.byte	0
	.byte	0
	.byte	0
	.byte	1
	.byte	1
	.byte	0
	.byte	0
	.byte	0
	.byte	1
	.byte	1
	.byte	0
	.byte	0
	.byte	0
	.byte	1
	.byte	0
	.byte	1
	.byte	1
	.byte	1
	.byte	0
	.globl	bv
	.align 32
	.type	bv, @object
	.size	bv, 35
bv:
	.byte	1
	.byte	0
	.byte	0
	.byte	0
	.byte	1
	.byte	1
	.byte	0
	.byte	0
	.byte	0
	.byte	1
	.byte	1
	.byte	0
	.byte	0
	.byte	0
	.byte	1
	.byte	0
	.byte	1
	.byte	0
	.byte	1
	.byte	0
	.byte	0
	.byte	1
	.byte	0
	.byte	1
	.byte	0
	.byte	0
	.byte	0
	.byte	1
	.byte	0
	.byte	0
	.byte	0
	.byte	0
	.byte	1
	.byte	0
	.byte	0
	.globl	bw
	.align 32
	.type	bw, @object
	.size	bw, 35
bw:
	.byte	1
	.byte	0
	.byte	0
	.byte	0
	.byte	1
	.byte	1
	.byte	0
	.byte	0
	.byte	0
	.byte	1
	.byte	1
	.byte	0
	.byte	0
	.byte	0
	.byte	1
	.byte	1
	.byte	0
	.byte	1
	.byte	0
	.byte	1
	.byte	1
	.byte	0
	.byte	1
	.byte	0
	.byte	1
	.byte	1
	.byte	0
	.byte	1
	.byte	0
	.byte	1
	.byte	0
	.byte	1
	.byte	0
	.byte	1
	.byte	0
	.globl	bx
	.align 32
	.type	bx, @object
	.size	bx, 35
bx:
	.byte	1
	.byte	0
	.byte	0
	.byte	0
	.byte	1
	.byte	0
	.byte	1
	.byte	0
	.byte	1
	.byte	0
	.byte	0
	.byte	1
	.byte	0
	.byte	1
	.byte	0
	.byte	0
	.byte	0
	.byte	1
	.byte	0
	.byte	0
	.byte	0
	.byte	1
	.byte	0
	.byte	1
	.byte	0
	.byte	0
	.byte	1
	.byte	0
	.byte	1
	.byte	0
	.byte	1
	.byte	0
	.byte	0
	.byte	0
	.byte	1
	.globl	by
	.align 32
	.type	by, @object
	.size	by, 35
by:
	.byte	1
	.byte	0
	.byte	0
	.byte	0
	.byte	1
	.byte	0
	.byte	1
	.byte	0
	.byte	1
	.byte	0
	.byte	0
	.byte	0
	.byte	1
	.byte	0
	.byte	0
	.byte	0
	.byte	0
	.byte	1
	.byte	0
	.byte	0
	.byte	0
	.byte	0
	.byte	1
	.byte	0
	.byte	0
	.byte	0
	.byte	0
	.byte	1
	.byte	0
	.byte	0
	.byte	0
	.byte	0
	.byte	1
	.byte	0
	.byte	0
	.globl	bz
	.align 32
	.type	bz, @object
	.size	bz, 35
bz:
	.byte	1
	.byte	1
	.byte	1
	.byte	1
	.byte	1
	.byte	0
	.byte	0
	.byte	0
	.byte	0
	.byte	1
	.byte	0
	.byte	0
	.byte	0
	.byte	1
	.byte	0
	.byte	0
	.byte	0
	.byte	1
	.byte	0
	.byte	0
	.byte	0
	.byte	1
	.byte	0
	.byte	0
	.byte	0
	.byte	1
	.byte	0
	.byte	0
	.byte	0
	.byte	0
	.byte	1
	.byte	1
	.byte	1
	.byte	1
	.byte	1
	.globl	num0
	.align 32
	.type	num0, @object
	.size	num0, 35
num0:
	.byte	0
	.byte	1
	.byte	1
	.byte	1
	.byte	0
	.byte	1
	.byte	0
	.byte	0
	.byte	1
	.byte	1
	.byte	1
	.byte	0
	.byte	1
	.byte	0
	.byte	1
	.byte	1
	.byte	0
	.byte	1
	.byte	0
	.byte	1
	.byte	1
	.byte	0
	.byte	1
	.byte	0
	.byte	1
	.byte	1
	.byte	1
	.byte	0
	.byte	0
	.byte	1
	.byte	0
	.byte	1
	.byte	1
	.byte	1
	.byte	0
	.globl	num1
	.align 32
	.type	num1, @object
	.size	num1, 35
num1:
	.byte	0
	.byte	0
	.byte	0
	.byte	0
	.byte	1
	.byte	0
	.byte	0
	.byte	0
	.byte	0
	.byte	1
	.byte	0
	.byte	0
	.byte	0
	.byte	0
	.byte	1
	.byte	0
	.byte	0
	.byte	0
	.byte	0
	.byte	1
	.byte	0
	.byte	0
	.byte	0
	.byte	0
	.byte	1
	.byte	0
	.byte	0
	.byte	0
	.byte	0
	.byte	1
	.byte	0
	.byte	0
	.byte	0
	.byte	0
	.byte	1
	.globl	num2
	.align 32
	.type	num2, @object
	.size	num2, 35
num2:
	.byte	0
	.byte	1
	.byte	1
	.byte	1
	.byte	0
	.byte	1
	.byte	0
	.byte	0
	.byte	0
	.byte	1
	.byte	0
	.byte	0
	.byte	0
	.byte	1
	.byte	0
	.byte	0
	.byte	0
	.byte	1
	.byte	0
	.byte	0
	.byte	0
	.byte	1
	.byte	0
	.byte	0
	.byte	0
	.byte	1
	.byte	0
	.byte	0
	.byte	0
	.byte	0
	.byte	1
	.byte	1
	.byte	1
	.byte	1
	.byte	1
	.globl	num3
	.align 32
	.type	num3, @object
	.size	num3, 35
num3:
	.byte	0
	.byte	1
	.byte	1
	.byte	1
	.byte	0
	.byte	1
	.byte	0
	.byte	0
	.byte	0
	.byte	1
	.byte	0
	.byte	0
	.byte	0
	.byte	0
	.byte	1
	.byte	0
	.byte	1
	.byte	1
	.byte	1
	.byte	0
	.byte	0
	.byte	0
	.byte	0
	.byte	0
	.byte	1
	.byte	1
	.byte	0
	.byte	0
	.byte	0
	.byte	1
	.byte	0
	.byte	1
	.byte	1
	.byte	1
	.byte	0
	.globl	num4
	.align 32
	.type	num4, @object
	.size	num4, 35
num4:
	.byte	1
	.byte	0
	.byte	0
	.byte	0
	.byte	1
	.byte	1
	.byte	0
	.byte	0
	.byte	0
	.byte	1
	.byte	1
	.byte	0
	.byte	0
	.byte	0
	.byte	1
	.byte	1
	.byte	1
	.byte	1
	.byte	1
	.byte	1
	.byte	0
	.byte	0
	.byte	0
	.byte	0
	.byte	1
	.byte	0
	.byte	0
	.byte	0
	.byte	0
	.byte	1
	.byte	0
	.byte	0
	.byte	0
	.byte	0
	.byte	1
	.globl	num5
	.align 32
	.type	num5, @object
	.size	num5, 35
num5:
	.byte	1
	.byte	1
	.byte	1
	.byte	1
	.byte	1
	.byte	1
	.byte	0
	.byte	0
	.byte	0
	.byte	0
	.byte	1
	.byte	0
	.byte	0
	.byte	0
	.byte	0
	.byte	1
	.byte	1
	.byte	1
	.byte	1
	.byte	0
	.byte	0
	.byte	0
	.byte	0
	.byte	0
	.byte	1
	.byte	0
	.byte	0
	.byte	0
	.byte	0
	.byte	1
	.byte	1
	.byte	1
	.byte	1
	.byte	1
	.byte	0
	.globl	num6
	.align 32
	.type	num6, @object
	.size	num6, 35
num6:
	.byte	1
	.byte	1
	.byte	1
	.byte	1
	.byte	1
	.byte	1
	.byte	0
	.byte	0
	.byte	0
	.byte	0
	.byte	1
	.byte	0
	.byte	0
	.byte	0
	.byte	0
	.byte	1
	.byte	1
	.byte	1
	.byte	1
	.byte	1
	.byte	1
	.byte	0
	.byte	0
	.byte	0
	.byte	1
	.byte	1
	.byte	0
	.byte	0
	.byte	0
	.byte	1
	.byte	1
	.byte	1
	.byte	1
	.byte	1
	.byte	1
	.globl	num7
	.align 32
	.type	num7, @object
	.size	num7, 35
num7:
	.byte	1
	.byte	1
	.byte	1
	.byte	1
	.byte	1
	.byte	0
	.byte	0
	.byte	0
	.byte	0
	.byte	1
	.byte	0
	.byte	0
	.byte	0
	.byte	0
	.byte	1
	.byte	0
	.byte	0
	.byte	0
	.byte	0
	.byte	1
	.byte	0
	.byte	0
	.byte	0
	.byte	0
	.byte	1
	.byte	0
	.byte	0
	.byte	0
	.byte	0
	.byte	1
	.byte	0
	.byte	0
	.byte	0
	.byte	0
	.byte	1
	.globl	num8
	.align 32
	.type	num8, @object
	.size	num8, 35
num8:
	.byte	0
	.byte	1
	.byte	1
	.byte	1
	.byte	0
	.byte	1
	.byte	0
	.byte	0
	.byte	0
	.byte	1
	.byte	1
	.byte	0
	.byte	0
	.byte	0
	.byte	1
	.byte	0
	.byte	1
	.byte	1
	.byte	1
	.byte	0
	.byte	1
	.byte	0
	.byte	0
	.byte	0
	.byte	1
	.byte	1
	.byte	0
	.byte	0
	.byte	0
	.byte	1
	.byte	0
	.byte	1
	.byte	1
	.byte	1
	.byte	0
	.globl	num9
	.align 32
	.type	num9, @object
	.size	num9, 35
num9:
	.byte	0
	.byte	1
	.byte	1
	.byte	1
	.byte	0
	.byte	1
	.byte	0
	.byte	0
	.byte	0
	.byte	1
	.byte	1
	.byte	0
	.byte	0
	.byte	0
	.byte	1
	.byte	0
	.byte	1
	.byte	1
	.byte	1
	.byte	0
	.byte	0
	.byte	0
	.byte	0
	.byte	0
	.byte	1
	.byte	0
	.byte	0
	.byte	0
	.byte	0
	.byte	1
	.byte	0
	.byte	1
	.byte	1
	.byte	1
	.byte	0
	.globl	underLine
	.align 32
	.type	underLine, @object
	.size	underLine, 35
underLine:
	.byte	0
	.byte	0
	.byte	0
	.byte	0
	.byte	0
	.byte	0
	.byte	0
	.byte	0
	.byte	0
	.byte	0
	.byte	0
	.byte	0
	.byte	0
	.byte	0
	.byte	0
	.byte	0
	.byte	0
	.byte	0
	.byte	0
	.byte	0
	.byte	0
	.byte	0
	.byte	0
	.byte	0
	.byte	0
	.byte	0
	.byte	0
	.byte	0
	.byte	0
	.byte	0
	.byte	1
	.byte	1
	.byte	1
	.byte	1
	.byte	1
	.globl	minus
	.align 32
	.type	minus, @object
	.size	minus, 35
minus:
	.byte	0
	.byte	0
	.byte	0
	.byte	0
	.byte	0
	.byte	0
	.byte	0
	.byte	0
	.byte	0
	.byte	0
	.byte	0
	.byte	0
	.byte	0
	.byte	0
	.byte	0
	.byte	0
	.byte	1
	.byte	1
	.byte	1
	.byte	0
	.byte	0
	.byte	0
	.byte	0
	.byte	0
	.byte	0
	.byte	0
	.byte	0
	.byte	0
	.byte	0
	.byte	0
	.byte	0
	.byte	0
	.byte	0
	.byte	0
	.byte	0
	.globl	plus
	.align 32
	.type	plus, @object
	.size	plus, 35
plus:
	.byte	0
	.byte	0
	.byte	0
	.byte	0
	.byte	0
	.byte	0
	.byte	0
	.byte	0
	.byte	0
	.byte	0
	.byte	0
	.byte	0
	.byte	1
	.byte	0
	.byte	0
	.byte	0
	.byte	1
	.byte	1
	.byte	1
	.byte	0
	.byte	0
	.byte	0
	.byte	1
	.byte	0
	.byte	0
	.byte	0
	.byte	0
	.byte	0
	.byte	0
	.byte	0
	.byte	0
	.byte	0
	.byte	0
	.byte	0
	.byte	0
	.globl	equal
	.align 32
	.type	equal, @object
	.size	equal, 35
equal:
	.byte	0
	.byte	0
	.byte	0
	.byte	0
	.byte	0
	.byte	0
	.byte	0
	.byte	0
	.byte	0
	.byte	0
	.byte	1
	.byte	1
	.byte	1
	.byte	1
	.byte	1
	.byte	0
	.byte	0
	.byte	0
	.byte	0
	.byte	0
	.byte	1
	.byte	1
	.byte	1
	.byte	1
	.byte	1
	.byte	0
	.byte	0
	.byte	0
	.byte	0
	.byte	0
	.byte	0
	.byte	0
	.byte	0
	.byte	0
	.byte	0
	.globl	leftBracket
	.align 32
	.type	leftBracket, @object
	.size	leftBracket, 35
leftBracket:
	.byte	0
	.byte	0
	.byte	0
	.byte	0
	.byte	1
	.byte	0
	.byte	0
	.byte	0
	.byte	1
	.byte	0
	.byte	0
	.byte	0
	.byte	1
	.byte	0
	.byte	0
	.byte	0
	.byte	0
	.byte	1
	.byte	0
	.byte	0
	.byte	0
	.byte	0
	.byte	1
	.byte	0
	.byte	0
	.byte	0
	.byte	0
	.byte	0
	.byte	1
	.byte	0
	.byte	0
	.byte	0
	.byte	0
	.byte	0
	.byte	1
	.globl	rightBracket
	.align 32
	.type	rightBracket, @object
	.size	rightBracket, 35
rightBracket:
	.byte	1
	.byte	0
	.byte	0
	.byte	0
	.byte	0
	.byte	0
	.byte	1
	.byte	0
	.byte	0
	.byte	0
	.byte	0
	.byte	0
	.byte	1
	.byte	0
	.byte	0
	.byte	0
	.byte	0
	.byte	1
	.byte	0
	.byte	0
	.byte	0
	.byte	0
	.byte	1
	.byte	0
	.byte	0
	.byte	0
	.byte	1
	.byte	0
	.byte	0
	.byte	0
	.byte	1
	.byte	0
	.byte	0
	.byte	0
	.byte	0
	.globl	exclamationMark
	.align 32
	.type	exclamationMark, @object
	.size	exclamationMark, 35
exclamationMark:
	.byte	0
	.byte	0
	.byte	1
	.byte	0
	.byte	0
	.byte	0
	.byte	0
	.byte	1
	.byte	0
	.byte	0
	.byte	0
	.byte	0
	.byte	1
	.byte	0
	.byte	0
	.byte	0
	.byte	0
	.byte	1
	.byte	0
	.byte	0
	.byte	0
	.byte	0
	.byte	1
	.byte	0
	.byte	0
	.byte	0
	.byte	0
	.byte	0
	.byte	0
	.byte	0
	.byte	0
	.byte	0
	.byte	1
	.byte	0
	.byte	0
	.globl	questionMark
	.align 32
	.type	questionMark, @object
	.size	questionMark, 35
questionMark:
	.byte	0
	.byte	0
	.byte	1
	.byte	0
	.byte	0
	.byte	0
	.byte	1
	.byte	0
	.byte	1
	.byte	0
	.byte	0
	.byte	0
	.byte	0
	.byte	1
	.byte	0
	.byte	0
	.byte	0
	.byte	1
	.byte	0
	.byte	0
	.byte	0
	.byte	0
	.byte	1
	.byte	0
	.byte	0
	.byte	0
	.byte	0
	.byte	0
	.byte	0
	.byte	0
	.byte	0
	.byte	0
	.byte	1
	.byte	0
	.byte	0
	.globl	dot
	.align 32
	.type	dot, @object
	.size	dot, 35
dot:
	.byte	0
	.byte	0
	.byte	0
	.byte	0
	.byte	0
	.byte	0
	.byte	0
	.byte	0
	.byte	0
	.byte	0
	.byte	0
	.byte	0
	.byte	0
	.byte	0
	.byte	0
	.byte	0
	.byte	0
	.byte	0
	.byte	0
	.byte	0
	.byte	0
	.byte	1
	.byte	1
	.byte	0
	.byte	0
	.byte	0
	.byte	1
	.byte	1
	.byte	0
	.byte	0
	.byte	0
	.byte	0
	.byte	0
	.byte	0
	.byte	0
	.globl	comma
	.align 32
	.type	comma, @object
	.size	comma, 35
comma:
	.byte	0
	.byte	0
	.byte	0
	.byte	0
	.byte	0
	.byte	0
	.byte	0
	.byte	0
	.byte	0
	.byte	0
	.byte	0
	.byte	0
	.byte	0
	.byte	0
	.byte	0
	.byte	0
	.byte	0
	.byte	0
	.byte	0
	.byte	0
	.byte	0
	.byte	1
	.byte	1
	.byte	0
	.byte	0
	.byte	0
	.byte	1
	.byte	1
	.byte	0
	.byte	0
	.byte	0
	.byte	0
	.byte	1
	.byte	0
	.byte	0
	.globl	semicolon
	.align 32
	.type	semicolon, @object
	.size	semicolon, 35
semicolon:
	.byte	0
	.byte	1
	.byte	1
	.byte	0
	.byte	0
	.byte	0
	.byte	1
	.byte	1
	.byte	0
	.byte	0
	.byte	0
	.byte	0
	.byte	0
	.byte	0
	.byte	0
	.byte	0
	.byte	0
	.byte	0
	.byte	0
	.byte	0
	.byte	0
	.byte	1
	.byte	1
	.byte	0
	.byte	0
	.byte	0
	.byte	1
	.byte	1
	.byte	0
	.byte	0
	.byte	0
	.byte	0
	.byte	1
	.byte	0
	.byte	0
	.globl	colon
	.align 32
	.type	colon, @object
	.size	colon, 35
colon:
	.byte	0
	.byte	1
	.byte	1
	.byte	0
	.byte	0
	.byte	0
	.byte	1
	.byte	1
	.byte	0
	.byte	0
	.byte	0
	.byte	0
	.byte	0
	.byte	0
	.byte	0
	.byte	0
	.byte	0
	.byte	0
	.byte	0
	.byte	0
	.byte	0
	.byte	1
	.byte	1
	.byte	0
	.byte	0
	.byte	0
	.byte	1
	.byte	1
	.byte	0
	.byte	0
	.byte	0
	.byte	0
	.byte	0
	.byte	0
	.byte	0
	.globl	gvoid
	.bss
	.align 32
	.type	gvoid, @object
	.size	gvoid, 35
gvoid:
	.zero	35
	.globl	unprintable
	.align 32
	.type	unprintable, @object
	.size	unprintable, 36
unprintable:
	.zero	36
	.globl	space
	.align 32
	.type	space, @object
	.size	space, 36
space:
	.zero	36
	.globl	asciitable
	.align 32
	.type	asciitable, @object
	.size	asciitable, 4572
asciitable:
	.zero	4572
	.text
	.globl	_Z9initasciiv
	.type	_Z9initasciiv, @function
_Z9initasciiv:
.LFB0:
	.cfi_startproc
	push	ebp
	.cfi_def_cfa_offset 8
	.cfi_offset 5, -8
	mov	ebp, esp
	.cfi_def_cfa_register 5
	push	ebx
	.cfi_offset 3, -12
	call	__x86.get_pc_thunk.ax
	add	eax, OFFSET FLAT:_GLOBAL_OFFSET_TABLE_
	mov	edx, DWORD PTR unprintable@GOT[eax]
	mov	BYTE PTR [edx], 0
	mov	edx, DWORD PTR gvoid@GOT[eax]
	mov	ecx, edx
	mov	edx, DWORD PTR unprintable@GOT[eax]
	lea	edx, 1[edx]
	movzx	ecx, BYTE PTR [ecx]
	mov	BYTE PTR [edx], cl
	mov	edx, DWORD PTR space@GOT[eax]
	mov	BYTE PTR [edx], 1
	mov	edx, DWORD PTR gvoid@GOT[eax]
	mov	ecx, edx
	mov	edx, DWORD PTR space@GOT[eax]
	lea	edx, 1[edx]
	movzx	ecx, BYTE PTR [ecx]
	mov	BYTE PTR [edx], cl
	mov	edx, DWORD PTR asciitable@GOT[eax]
	mov	ecx, DWORD PTR unprintable@GOT[eax]
	mov	ebx, DWORD PTR [ecx]
	mov	DWORD PTR [edx], ebx
	mov	ebx, DWORD PTR 4[ecx]
	mov	DWORD PTR 4[edx], ebx
	mov	ebx, DWORD PTR 8[ecx]
	mov	DWORD PTR 8[edx], ebx
	mov	ebx, DWORD PTR 12[ecx]
	mov	DWORD PTR 12[edx], ebx
	mov	ebx, DWORD PTR 16[ecx]
	mov	DWORD PTR 16[edx], ebx
	mov	ebx, DWORD PTR 20[ecx]
	mov	DWORD PTR 20[edx], ebx
	mov	ebx, DWORD PTR 24[ecx]
	mov	DWORD PTR 24[edx], ebx
	mov	ebx, DWORD PTR 28[ecx]
	mov	DWORD PTR 28[edx], ebx
	mov	ecx, DWORD PTR 32[ecx]
	mov	DWORD PTR 32[edx], ecx
	mov	edx, DWORD PTR asciitable@GOT[eax]
	mov	ecx, DWORD PTR unprintable@GOT[eax]
	mov	ebx, DWORD PTR [ecx]
	mov	DWORD PTR 36[edx], ebx
	mov	ebx, DWORD PTR 4[ecx]
	mov	DWORD PTR 40[edx], ebx
	mov	ebx, DWORD PTR 8[ecx]
	mov	DWORD PTR 44[edx], ebx
	mov	ebx, DWORD PTR 12[ecx]
	mov	DWORD PTR 48[edx], ebx
	mov	ebx, DWORD PTR 16[ecx]
	mov	DWORD PTR 52[edx], ebx
	mov	ebx, DWORD PTR 20[ecx]
	mov	DWORD PTR 56[edx], ebx
	mov	ebx, DWORD PTR 24[ecx]
	mov	DWORD PTR 60[edx], ebx
	mov	ebx, DWORD PTR 28[ecx]
	mov	DWORD PTR 64[edx], ebx
	mov	ecx, DWORD PTR 32[ecx]
	mov	DWORD PTR 68[edx], ecx
	mov	edx, DWORD PTR asciitable@GOT[eax]
	mov	ecx, DWORD PTR unprintable@GOT[eax]
	mov	ebx, DWORD PTR [ecx]
	mov	DWORD PTR 72[edx], ebx
	mov	ebx, DWORD PTR 4[ecx]
	mov	DWORD PTR 76[edx], ebx
	mov	ebx, DWORD PTR 8[ecx]
	mov	DWORD PTR 80[edx], ebx
	mov	ebx, DWORD PTR 12[ecx]
	mov	DWORD PTR 84[edx], ebx
	mov	ebx, DWORD PTR 16[ecx]
	mov	DWORD PTR 88[edx], ebx
	mov	ebx, DWORD PTR 20[ecx]
	mov	DWORD PTR 92[edx], ebx
	mov	ebx, DWORD PTR 24[ecx]
	mov	DWORD PTR 96[edx], ebx
	mov	ebx, DWORD PTR 28[ecx]
	mov	DWORD PTR 100[edx], ebx
	mov	ecx, DWORD PTR 32[ecx]
	mov	DWORD PTR 104[edx], ecx
	mov	edx, DWORD PTR asciitable@GOT[eax]
	mov	ecx, DWORD PTR unprintable@GOT[eax]
	mov	ebx, DWORD PTR [ecx]
	mov	DWORD PTR 108[edx], ebx
	mov	ebx, DWORD PTR 4[ecx]
	mov	DWORD PTR 112[edx], ebx
	mov	ebx, DWORD PTR 8[ecx]
	mov	DWORD PTR 116[edx], ebx
	mov	ebx, DWORD PTR 12[ecx]
	mov	DWORD PTR 120[edx], ebx
	mov	ebx, DWORD PTR 16[ecx]
	mov	DWORD PTR 124[edx], ebx
	mov	ebx, DWORD PTR 20[ecx]
	mov	DWORD PTR 128[edx], ebx
	mov	ebx, DWORD PTR 24[ecx]
	mov	DWORD PTR 132[edx], ebx
	mov	ebx, DWORD PTR 28[ecx]
	mov	DWORD PTR 136[edx], ebx
	mov	ecx, DWORD PTR 32[ecx]
	mov	DWORD PTR 140[edx], ecx
	mov	edx, DWORD PTR asciitable@GOT[eax]
	mov	ecx, DWORD PTR unprintable@GOT[eax]
	mov	ebx, DWORD PTR [ecx]
	mov	DWORD PTR 144[edx], ebx
	mov	ebx, DWORD PTR 4[ecx]
	mov	DWORD PTR 148[edx], ebx
	mov	ebx, DWORD PTR 8[ecx]
	mov	DWORD PTR 152[edx], ebx
	mov	ebx, DWORD PTR 12[ecx]
	mov	DWORD PTR 156[edx], ebx
	mov	ebx, DWORD PTR 16[ecx]
	mov	DWORD PTR 160[edx], ebx
	mov	ebx, DWORD PTR 20[ecx]
	mov	DWORD PTR 164[edx], ebx
	mov	ebx, DWORD PTR 24[ecx]
	mov	DWORD PTR 168[edx], ebx
	mov	ebx, DWORD PTR 28[ecx]
	mov	DWORD PTR 172[edx], ebx
	mov	ecx, DWORD PTR 32[ecx]
	mov	DWORD PTR 176[edx], ecx
	mov	edx, DWORD PTR asciitable@GOT[eax]
	mov	ecx, DWORD PTR unprintable@GOT[eax]
	mov	ebx, DWORD PTR [ecx]
	mov	DWORD PTR 180[edx], ebx
	mov	ebx, DWORD PTR 4[ecx]
	mov	DWORD PTR 184[edx], ebx
	mov	ebx, DWORD PTR 8[ecx]
	mov	DWORD PTR 188[edx], ebx
	mov	ebx, DWORD PTR 12[ecx]
	mov	DWORD PTR 192[edx], ebx
	mov	ebx, DWORD PTR 16[ecx]
	mov	DWORD PTR 196[edx], ebx
	mov	ebx, DWORD PTR 20[ecx]
	mov	DWORD PTR 200[edx], ebx
	mov	ebx, DWORD PTR 24[ecx]
	mov	DWORD PTR 204[edx], ebx
	mov	ebx, DWORD PTR 28[ecx]
	mov	DWORD PTR 208[edx], ebx
	mov	ecx, DWORD PTR 32[ecx]
	mov	DWORD PTR 212[edx], ecx
	mov	edx, DWORD PTR asciitable@GOT[eax]
	mov	ecx, DWORD PTR unprintable@GOT[eax]
	mov	ebx, DWORD PTR [ecx]
	mov	DWORD PTR 216[edx], ebx
	mov	ebx, DWORD PTR 4[ecx]
	mov	DWORD PTR 220[edx], ebx
	mov	ebx, DWORD PTR 8[ecx]
	mov	DWORD PTR 224[edx], ebx
	mov	ebx, DWORD PTR 12[ecx]
	mov	DWORD PTR 228[edx], ebx
	mov	ebx, DWORD PTR 16[ecx]
	mov	DWORD PTR 232[edx], ebx
	mov	ebx, DWORD PTR 20[ecx]
	mov	DWORD PTR 236[edx], ebx
	mov	ebx, DWORD PTR 24[ecx]
	mov	DWORD PTR 240[edx], ebx
	mov	ebx, DWORD PTR 28[ecx]
	mov	DWORD PTR 244[edx], ebx
	mov	ecx, DWORD PTR 32[ecx]
	mov	DWORD PTR 248[edx], ecx
	mov	edx, DWORD PTR asciitable@GOT[eax]
	mov	ecx, DWORD PTR unprintable@GOT[eax]
	mov	ebx, DWORD PTR [ecx]
	mov	DWORD PTR 252[edx], ebx
	mov	ebx, DWORD PTR 4[ecx]
	mov	DWORD PTR 256[edx], ebx
	mov	ebx, DWORD PTR 8[ecx]
	mov	DWORD PTR 260[edx], ebx
	mov	ebx, DWORD PTR 12[ecx]
	mov	DWORD PTR 264[edx], ebx
	mov	ebx, DWORD PTR 16[ecx]
	mov	DWORD PTR 268[edx], ebx
	mov	ebx, DWORD PTR 20[ecx]
	mov	DWORD PTR 272[edx], ebx
	mov	ebx, DWORD PTR 24[ecx]
	mov	DWORD PTR 276[edx], ebx
	mov	ebx, DWORD PTR 28[ecx]
	mov	DWORD PTR 280[edx], ebx
	mov	ecx, DWORD PTR 32[ecx]
	mov	DWORD PTR 284[edx], ecx
	mov	edx, DWORD PTR asciitable@GOT[eax]
	mov	ecx, DWORD PTR unprintable@GOT[eax]
	mov	ebx, DWORD PTR [ecx]
	mov	DWORD PTR 288[edx], ebx
	mov	ebx, DWORD PTR 4[ecx]
	mov	DWORD PTR 292[edx], ebx
	mov	ebx, DWORD PTR 8[ecx]
	mov	DWORD PTR 296[edx], ebx
	mov	ebx, DWORD PTR 12[ecx]
	mov	DWORD PTR 300[edx], ebx
	mov	ebx, DWORD PTR 16[ecx]
	mov	DWORD PTR 304[edx], ebx
	mov	ebx, DWORD PTR 20[ecx]
	mov	DWORD PTR 308[edx], ebx
	mov	ebx, DWORD PTR 24[ecx]
	mov	DWORD PTR 312[edx], ebx
	mov	ebx, DWORD PTR 28[ecx]
	mov	DWORD PTR 316[edx], ebx
	mov	ecx, DWORD PTR 32[ecx]
	mov	DWORD PTR 320[edx], ecx
	mov	edx, DWORD PTR asciitable@GOT[eax]
	mov	ecx, DWORD PTR unprintable@GOT[eax]
	mov	ebx, DWORD PTR [ecx]
	mov	DWORD PTR 324[edx], ebx
	mov	ebx, DWORD PTR 4[ecx]
	mov	DWORD PTR 328[edx], ebx
	mov	ebx, DWORD PTR 8[ecx]
	mov	DWORD PTR 332[edx], ebx
	mov	ebx, DWORD PTR 12[ecx]
	mov	DWORD PTR 336[edx], ebx
	mov	ebx, DWORD PTR 16[ecx]
	mov	DWORD PTR 340[edx], ebx
	mov	ebx, DWORD PTR 20[ecx]
	mov	DWORD PTR 344[edx], ebx
	mov	ebx, DWORD PTR 24[ecx]
	mov	DWORD PTR 348[edx], ebx
	mov	ebx, DWORD PTR 28[ecx]
	mov	DWORD PTR 352[edx], ebx
	mov	ecx, DWORD PTR 32[ecx]
	mov	DWORD PTR 356[edx], ecx
	mov	edx, DWORD PTR asciitable@GOT[eax]
	mov	ecx, DWORD PTR unprintable@GOT[eax]
	mov	ebx, DWORD PTR [ecx]
	mov	DWORD PTR 360[edx], ebx
	mov	ebx, DWORD PTR 4[ecx]
	mov	DWORD PTR 364[edx], ebx
	mov	ebx, DWORD PTR 8[ecx]
	mov	DWORD PTR 368[edx], ebx
	mov	ebx, DWORD PTR 12[ecx]
	mov	DWORD PTR 372[edx], ebx
	mov	ebx, DWORD PTR 16[ecx]
	mov	DWORD PTR 376[edx], ebx
	mov	ebx, DWORD PTR 20[ecx]
	mov	DWORD PTR 380[edx], ebx
	mov	ebx, DWORD PTR 24[ecx]
	mov	DWORD PTR 384[edx], ebx
	mov	ebx, DWORD PTR 28[ecx]
	mov	DWORD PTR 388[edx], ebx
	mov	ecx, DWORD PTR 32[ecx]
	mov	DWORD PTR 392[edx], ecx
	mov	edx, DWORD PTR asciitable@GOT[eax]
	mov	ecx, DWORD PTR unprintable@GOT[eax]
	mov	ebx, DWORD PTR [ecx]
	mov	DWORD PTR 396[edx], ebx
	mov	ebx, DWORD PTR 4[ecx]
	mov	DWORD PTR 400[edx], ebx
	mov	ebx, DWORD PTR 8[ecx]
	mov	DWORD PTR 404[edx], ebx
	mov	ebx, DWORD PTR 12[ecx]
	mov	DWORD PTR 408[edx], ebx
	mov	ebx, DWORD PTR 16[ecx]
	mov	DWORD PTR 412[edx], ebx
	mov	ebx, DWORD PTR 20[ecx]
	mov	DWORD PTR 416[edx], ebx
	mov	ebx, DWORD PTR 24[ecx]
	mov	DWORD PTR 420[edx], ebx
	mov	ebx, DWORD PTR 28[ecx]
	mov	DWORD PTR 424[edx], ebx
	mov	ecx, DWORD PTR 32[ecx]
	mov	DWORD PTR 428[edx], ecx
	mov	edx, DWORD PTR asciitable@GOT[eax]
	mov	ecx, DWORD PTR unprintable@GOT[eax]
	mov	ebx, DWORD PTR [ecx]
	mov	DWORD PTR 432[edx], ebx
	mov	ebx, DWORD PTR 4[ecx]
	mov	DWORD PTR 436[edx], ebx
	mov	ebx, DWORD PTR 8[ecx]
	mov	DWORD PTR 440[edx], ebx
	mov	ebx, DWORD PTR 12[ecx]
	mov	DWORD PTR 444[edx], ebx
	mov	ebx, DWORD PTR 16[ecx]
	mov	DWORD PTR 448[edx], ebx
	mov	ebx, DWORD PTR 20[ecx]
	mov	DWORD PTR 452[edx], ebx
	mov	ebx, DWORD PTR 24[ecx]
	mov	DWORD PTR 456[edx], ebx
	mov	ebx, DWORD PTR 28[ecx]
	mov	DWORD PTR 460[edx], ebx
	mov	ecx, DWORD PTR 32[ecx]
	mov	DWORD PTR 464[edx], ecx
	mov	edx, DWORD PTR asciitable@GOT[eax]
	mov	ecx, DWORD PTR unprintable@GOT[eax]
	mov	ebx, DWORD PTR [ecx]
	mov	DWORD PTR 468[edx], ebx
	mov	ebx, DWORD PTR 4[ecx]
	mov	DWORD PTR 472[edx], ebx
	mov	ebx, DWORD PTR 8[ecx]
	mov	DWORD PTR 476[edx], ebx
	mov	ebx, DWORD PTR 12[ecx]
	mov	DWORD PTR 480[edx], ebx
	mov	ebx, DWORD PTR 16[ecx]
	mov	DWORD PTR 484[edx], ebx
	mov	ebx, DWORD PTR 20[ecx]
	mov	DWORD PTR 488[edx], ebx
	mov	ebx, DWORD PTR 24[ecx]
	mov	DWORD PTR 492[edx], ebx
	mov	ebx, DWORD PTR 28[ecx]
	mov	DWORD PTR 496[edx], ebx
	mov	ecx, DWORD PTR 32[ecx]
	mov	DWORD PTR 500[edx], ecx
	mov	edx, DWORD PTR asciitable@GOT[eax]
	mov	ecx, DWORD PTR unprintable@GOT[eax]
	mov	ebx, DWORD PTR [ecx]
	mov	DWORD PTR 504[edx], ebx
	mov	ebx, DWORD PTR 4[ecx]
	mov	DWORD PTR 508[edx], ebx
	mov	ebx, DWORD PTR 8[ecx]
	mov	DWORD PTR 512[edx], ebx
	mov	ebx, DWORD PTR 12[ecx]
	mov	DWORD PTR 516[edx], ebx
	mov	ebx, DWORD PTR 16[ecx]
	mov	DWORD PTR 520[edx], ebx
	mov	ebx, DWORD PTR 20[ecx]
	mov	DWORD PTR 524[edx], ebx
	mov	ebx, DWORD PTR 24[ecx]
	mov	DWORD PTR 528[edx], ebx
	mov	ebx, DWORD PTR 28[ecx]
	mov	DWORD PTR 532[edx], ebx
	mov	ecx, DWORD PTR 32[ecx]
	mov	DWORD PTR 536[edx], ecx
	mov	edx, DWORD PTR asciitable@GOT[eax]
	mov	ecx, DWORD PTR unprintable@GOT[eax]
	mov	ebx, DWORD PTR [ecx]
	mov	DWORD PTR 540[edx], ebx
	mov	ebx, DWORD PTR 4[ecx]
	mov	DWORD PTR 544[edx], ebx
	mov	ebx, DWORD PTR 8[ecx]
	mov	DWORD PTR 548[edx], ebx
	mov	ebx, DWORD PTR 12[ecx]
	mov	DWORD PTR 552[edx], ebx
	mov	ebx, DWORD PTR 16[ecx]
	mov	DWORD PTR 556[edx], ebx
	mov	ebx, DWORD PTR 20[ecx]
	mov	DWORD PTR 560[edx], ebx
	mov	ebx, DWORD PTR 24[ecx]
	mov	DWORD PTR 564[edx], ebx
	mov	ebx, DWORD PTR 28[ecx]
	mov	DWORD PTR 568[edx], ebx
	mov	ecx, DWORD PTR 32[ecx]
	mov	DWORD PTR 572[edx], ecx
	mov	edx, DWORD PTR asciitable@GOT[eax]
	mov	ecx, DWORD PTR unprintable@GOT[eax]
	mov	ebx, DWORD PTR [ecx]
	mov	DWORD PTR 576[edx], ebx
	mov	ebx, DWORD PTR 4[ecx]
	mov	DWORD PTR 580[edx], ebx
	mov	ebx, DWORD PTR 8[ecx]
	mov	DWORD PTR 584[edx], ebx
	mov	ebx, DWORD PTR 12[ecx]
	mov	DWORD PTR 588[edx], ebx
	mov	ebx, DWORD PTR 16[ecx]
	mov	DWORD PTR 592[edx], ebx
	mov	ebx, DWORD PTR 20[ecx]
	mov	DWORD PTR 596[edx], ebx
	mov	ebx, DWORD PTR 24[ecx]
	mov	DWORD PTR 600[edx], ebx
	mov	ebx, DWORD PTR 28[ecx]
	mov	DWORD PTR 604[edx], ebx
	mov	ecx, DWORD PTR 32[ecx]
	mov	DWORD PTR 608[edx], ecx
	mov	edx, DWORD PTR asciitable@GOT[eax]
	mov	ecx, DWORD PTR unprintable@GOT[eax]
	mov	ebx, DWORD PTR [ecx]
	mov	DWORD PTR 612[edx], ebx
	mov	ebx, DWORD PTR 4[ecx]
	mov	DWORD PTR 616[edx], ebx
	mov	ebx, DWORD PTR 8[ecx]
	mov	DWORD PTR 620[edx], ebx
	mov	ebx, DWORD PTR 12[ecx]
	mov	DWORD PTR 624[edx], ebx
	mov	ebx, DWORD PTR 16[ecx]
	mov	DWORD PTR 628[edx], ebx
	mov	ebx, DWORD PTR 20[ecx]
	mov	DWORD PTR 632[edx], ebx
	mov	ebx, DWORD PTR 24[ecx]
	mov	DWORD PTR 636[edx], ebx
	mov	ebx, DWORD PTR 28[ecx]
	mov	DWORD PTR 640[edx], ebx
	mov	ecx, DWORD PTR 32[ecx]
	mov	DWORD PTR 644[edx], ecx
	mov	edx, DWORD PTR asciitable@GOT[eax]
	mov	ecx, DWORD PTR unprintable@GOT[eax]
	mov	ebx, DWORD PTR [ecx]
	mov	DWORD PTR 648[edx], ebx
	mov	ebx, DWORD PTR 4[ecx]
	mov	DWORD PTR 652[edx], ebx
	mov	ebx, DWORD PTR 8[ecx]
	mov	DWORD PTR 656[edx], ebx
	mov	ebx, DWORD PTR 12[ecx]
	mov	DWORD PTR 660[edx], ebx
	mov	ebx, DWORD PTR 16[ecx]
	mov	DWORD PTR 664[edx], ebx
	mov	ebx, DWORD PTR 20[ecx]
	mov	DWORD PTR 668[edx], ebx
	mov	ebx, DWORD PTR 24[ecx]
	mov	DWORD PTR 672[edx], ebx
	mov	ebx, DWORD PTR 28[ecx]
	mov	DWORD PTR 676[edx], ebx
	mov	ecx, DWORD PTR 32[ecx]
	mov	DWORD PTR 680[edx], ecx
	mov	edx, DWORD PTR asciitable@GOT[eax]
	mov	ecx, DWORD PTR unprintable@GOT[eax]
	mov	ebx, DWORD PTR [ecx]
	mov	DWORD PTR 684[edx], ebx
	mov	ebx, DWORD PTR 4[ecx]
	mov	DWORD PTR 688[edx], ebx
	mov	ebx, DWORD PTR 8[ecx]
	mov	DWORD PTR 692[edx], ebx
	mov	ebx, DWORD PTR 12[ecx]
	mov	DWORD PTR 696[edx], ebx
	mov	ebx, DWORD PTR 16[ecx]
	mov	DWORD PTR 700[edx], ebx
	mov	ebx, DWORD PTR 20[ecx]
	mov	DWORD PTR 704[edx], ebx
	mov	ebx, DWORD PTR 24[ecx]
	mov	DWORD PTR 708[edx], ebx
	mov	ebx, DWORD PTR 28[ecx]
	mov	DWORD PTR 712[edx], ebx
	mov	ecx, DWORD PTR 32[ecx]
	mov	DWORD PTR 716[edx], ecx
	mov	edx, DWORD PTR asciitable@GOT[eax]
	mov	ecx, DWORD PTR unprintable@GOT[eax]
	mov	ebx, DWORD PTR [ecx]
	mov	DWORD PTR 720[edx], ebx
	mov	ebx, DWORD PTR 4[ecx]
	mov	DWORD PTR 724[edx], ebx
	mov	ebx, DWORD PTR 8[ecx]
	mov	DWORD PTR 728[edx], ebx
	mov	ebx, DWORD PTR 12[ecx]
	mov	DWORD PTR 732[edx], ebx
	mov	ebx, DWORD PTR 16[ecx]
	mov	DWORD PTR 736[edx], ebx
	mov	ebx, DWORD PTR 20[ecx]
	mov	DWORD PTR 740[edx], ebx
	mov	ebx, DWORD PTR 24[ecx]
	mov	DWORD PTR 744[edx], ebx
	mov	ebx, DWORD PTR 28[ecx]
	mov	DWORD PTR 748[edx], ebx
	mov	ecx, DWORD PTR 32[ecx]
	mov	DWORD PTR 752[edx], ecx
	mov	edx, DWORD PTR asciitable@GOT[eax]
	mov	ecx, DWORD PTR unprintable@GOT[eax]
	mov	ebx, DWORD PTR [ecx]
	mov	DWORD PTR 756[edx], ebx
	mov	ebx, DWORD PTR 4[ecx]
	mov	DWORD PTR 760[edx], ebx
	mov	ebx, DWORD PTR 8[ecx]
	mov	DWORD PTR 764[edx], ebx
	mov	ebx, DWORD PTR 12[ecx]
	mov	DWORD PTR 768[edx], ebx
	mov	ebx, DWORD PTR 16[ecx]
	mov	DWORD PTR 772[edx], ebx
	mov	ebx, DWORD PTR 20[ecx]
	mov	DWORD PTR 776[edx], ebx
	mov	ebx, DWORD PTR 24[ecx]
	mov	DWORD PTR 780[edx], ebx
	mov	ebx, DWORD PTR 28[ecx]
	mov	DWORD PTR 784[edx], ebx
	mov	ecx, DWORD PTR 32[ecx]
	mov	DWORD PTR 788[edx], ecx
	mov	edx, DWORD PTR asciitable@GOT[eax]
	mov	ecx, DWORD PTR unprintable@GOT[eax]
	mov	ebx, DWORD PTR [ecx]
	mov	DWORD PTR 792[edx], ebx
	mov	ebx, DWORD PTR 4[ecx]
	mov	DWORD PTR 796[edx], ebx
	mov	ebx, DWORD PTR 8[ecx]
	mov	DWORD PTR 800[edx], ebx
	mov	ebx, DWORD PTR 12[ecx]
	mov	DWORD PTR 804[edx], ebx
	mov	ebx, DWORD PTR 16[ecx]
	mov	DWORD PTR 808[edx], ebx
	mov	ebx, DWORD PTR 20[ecx]
	mov	DWORD PTR 812[edx], ebx
	mov	ebx, DWORD PTR 24[ecx]
	mov	DWORD PTR 816[edx], ebx
	mov	ebx, DWORD PTR 28[ecx]
	mov	DWORD PTR 820[edx], ebx
	mov	ecx, DWORD PTR 32[ecx]
	mov	DWORD PTR 824[edx], ecx
	mov	edx, DWORD PTR asciitable@GOT[eax]
	mov	ecx, DWORD PTR unprintable@GOT[eax]
	mov	ebx, DWORD PTR [ecx]
	mov	DWORD PTR 828[edx], ebx
	mov	ebx, DWORD PTR 4[ecx]
	mov	DWORD PTR 832[edx], ebx
	mov	ebx, DWORD PTR 8[ecx]
	mov	DWORD PTR 836[edx], ebx
	mov	ebx, DWORD PTR 12[ecx]
	mov	DWORD PTR 840[edx], ebx
	mov	ebx, DWORD PTR 16[ecx]
	mov	DWORD PTR 844[edx], ebx
	mov	ebx, DWORD PTR 20[ecx]
	mov	DWORD PTR 848[edx], ebx
	mov	ebx, DWORD PTR 24[ecx]
	mov	DWORD PTR 852[edx], ebx
	mov	ebx, DWORD PTR 28[ecx]
	mov	DWORD PTR 856[edx], ebx
	mov	ecx, DWORD PTR 32[ecx]
	mov	DWORD PTR 860[edx], ecx
	mov	edx, DWORD PTR asciitable@GOT[eax]
	mov	ecx, DWORD PTR unprintable@GOT[eax]
	mov	ebx, DWORD PTR [ecx]
	mov	DWORD PTR 864[edx], ebx
	mov	ebx, DWORD PTR 4[ecx]
	mov	DWORD PTR 868[edx], ebx
	mov	ebx, DWORD PTR 8[ecx]
	mov	DWORD PTR 872[edx], ebx
	mov	ebx, DWORD PTR 12[ecx]
	mov	DWORD PTR 876[edx], ebx
	mov	ebx, DWORD PTR 16[ecx]
	mov	DWORD PTR 880[edx], ebx
	mov	ebx, DWORD PTR 20[ecx]
	mov	DWORD PTR 884[edx], ebx
	mov	ebx, DWORD PTR 24[ecx]
	mov	DWORD PTR 888[edx], ebx
	mov	ebx, DWORD PTR 28[ecx]
	mov	DWORD PTR 892[edx], ebx
	mov	ecx, DWORD PTR 32[ecx]
	mov	DWORD PTR 896[edx], ecx
	mov	edx, DWORD PTR asciitable@GOT[eax]
	mov	ecx, DWORD PTR unprintable@GOT[eax]
	mov	ebx, DWORD PTR [ecx]
	mov	DWORD PTR 900[edx], ebx
	mov	ebx, DWORD PTR 4[ecx]
	mov	DWORD PTR 904[edx], ebx
	mov	ebx, DWORD PTR 8[ecx]
	mov	DWORD PTR 908[edx], ebx
	mov	ebx, DWORD PTR 12[ecx]
	mov	DWORD PTR 912[edx], ebx
	mov	ebx, DWORD PTR 16[ecx]
	mov	DWORD PTR 916[edx], ebx
	mov	ebx, DWORD PTR 20[ecx]
	mov	DWORD PTR 920[edx], ebx
	mov	ebx, DWORD PTR 24[ecx]
	mov	DWORD PTR 924[edx], ebx
	mov	ebx, DWORD PTR 28[ecx]
	mov	DWORD PTR 928[edx], ebx
	mov	ecx, DWORD PTR 32[ecx]
	mov	DWORD PTR 932[edx], ecx
	mov	edx, DWORD PTR asciitable@GOT[eax]
	mov	ecx, DWORD PTR unprintable@GOT[eax]
	mov	ebx, DWORD PTR [ecx]
	mov	DWORD PTR 936[edx], ebx
	mov	ebx, DWORD PTR 4[ecx]
	mov	DWORD PTR 940[edx], ebx
	mov	ebx, DWORD PTR 8[ecx]
	mov	DWORD PTR 944[edx], ebx
	mov	ebx, DWORD PTR 12[ecx]
	mov	DWORD PTR 948[edx], ebx
	mov	ebx, DWORD PTR 16[ecx]
	mov	DWORD PTR 952[edx], ebx
	mov	ebx, DWORD PTR 20[ecx]
	mov	DWORD PTR 956[edx], ebx
	mov	ebx, DWORD PTR 24[ecx]
	mov	DWORD PTR 960[edx], ebx
	mov	ebx, DWORD PTR 28[ecx]
	mov	DWORD PTR 964[edx], ebx
	mov	ecx, DWORD PTR 32[ecx]
	mov	DWORD PTR 968[edx], ecx
	mov	edx, DWORD PTR asciitable@GOT[eax]
	mov	ecx, DWORD PTR unprintable@GOT[eax]
	mov	ebx, DWORD PTR [ecx]
	mov	DWORD PTR 972[edx], ebx
	mov	ebx, DWORD PTR 4[ecx]
	mov	DWORD PTR 976[edx], ebx
	mov	ebx, DWORD PTR 8[ecx]
	mov	DWORD PTR 980[edx], ebx
	mov	ebx, DWORD PTR 12[ecx]
	mov	DWORD PTR 984[edx], ebx
	mov	ebx, DWORD PTR 16[ecx]
	mov	DWORD PTR 988[edx], ebx
	mov	ebx, DWORD PTR 20[ecx]
	mov	DWORD PTR 992[edx], ebx
	mov	ebx, DWORD PTR 24[ecx]
	mov	DWORD PTR 996[edx], ebx
	mov	ebx, DWORD PTR 28[ecx]
	mov	DWORD PTR 1000[edx], ebx
	mov	ecx, DWORD PTR 32[ecx]
	mov	DWORD PTR 1004[edx], ecx
	mov	edx, DWORD PTR asciitable@GOT[eax]
	mov	ecx, DWORD PTR unprintable@GOT[eax]
	mov	ebx, DWORD PTR [ecx]
	mov	DWORD PTR 1008[edx], ebx
	mov	ebx, DWORD PTR 4[ecx]
	mov	DWORD PTR 1012[edx], ebx
	mov	ebx, DWORD PTR 8[ecx]
	mov	DWORD PTR 1016[edx], ebx
	mov	ebx, DWORD PTR 12[ecx]
	mov	DWORD PTR 1020[edx], ebx
	mov	ebx, DWORD PTR 16[ecx]
	mov	DWORD PTR 1024[edx], ebx
	mov	ebx, DWORD PTR 20[ecx]
	mov	DWORD PTR 1028[edx], ebx
	mov	ebx, DWORD PTR 24[ecx]
	mov	DWORD PTR 1032[edx], ebx
	mov	ebx, DWORD PTR 28[ecx]
	mov	DWORD PTR 1036[edx], ebx
	mov	ecx, DWORD PTR 32[ecx]
	mov	DWORD PTR 1040[edx], ecx
	mov	edx, DWORD PTR asciitable@GOT[eax]
	mov	ecx, DWORD PTR unprintable@GOT[eax]
	mov	ebx, DWORD PTR [ecx]
	mov	DWORD PTR 1044[edx], ebx
	mov	ebx, DWORD PTR 4[ecx]
	mov	DWORD PTR 1048[edx], ebx
	mov	ebx, DWORD PTR 8[ecx]
	mov	DWORD PTR 1052[edx], ebx
	mov	ebx, DWORD PTR 12[ecx]
	mov	DWORD PTR 1056[edx], ebx
	mov	ebx, DWORD PTR 16[ecx]
	mov	DWORD PTR 1060[edx], ebx
	mov	ebx, DWORD PTR 20[ecx]
	mov	DWORD PTR 1064[edx], ebx
	mov	ebx, DWORD PTR 24[ecx]
	mov	DWORD PTR 1068[edx], ebx
	mov	ebx, DWORD PTR 28[ecx]
	mov	DWORD PTR 1072[edx], ebx
	mov	ecx, DWORD PTR 32[ecx]
	mov	DWORD PTR 1076[edx], ecx
	mov	edx, DWORD PTR asciitable@GOT[eax]
	mov	ecx, DWORD PTR unprintable@GOT[eax]
	mov	ebx, DWORD PTR [ecx]
	mov	DWORD PTR 1080[edx], ebx
	mov	ebx, DWORD PTR 4[ecx]
	mov	DWORD PTR 1084[edx], ebx
	mov	ebx, DWORD PTR 8[ecx]
	mov	DWORD PTR 1088[edx], ebx
	mov	ebx, DWORD PTR 12[ecx]
	mov	DWORD PTR 1092[edx], ebx
	mov	ebx, DWORD PTR 16[ecx]
	mov	DWORD PTR 1096[edx], ebx
	mov	ebx, DWORD PTR 20[ecx]
	mov	DWORD PTR 1100[edx], ebx
	mov	ebx, DWORD PTR 24[ecx]
	mov	DWORD PTR 1104[edx], ebx
	mov	ebx, DWORD PTR 28[ecx]
	mov	DWORD PTR 1108[edx], ebx
	mov	ecx, DWORD PTR 32[ecx]
	mov	DWORD PTR 1112[edx], ecx
	mov	edx, DWORD PTR asciitable@GOT[eax]
	mov	ecx, DWORD PTR unprintable@GOT[eax]
	mov	ebx, DWORD PTR [ecx]
	mov	DWORD PTR 1116[edx], ebx
	mov	ebx, DWORD PTR 4[ecx]
	mov	DWORD PTR 1120[edx], ebx
	mov	ebx, DWORD PTR 8[ecx]
	mov	DWORD PTR 1124[edx], ebx
	mov	ebx, DWORD PTR 12[ecx]
	mov	DWORD PTR 1128[edx], ebx
	mov	ebx, DWORD PTR 16[ecx]
	mov	DWORD PTR 1132[edx], ebx
	mov	ebx, DWORD PTR 20[ecx]
	mov	DWORD PTR 1136[edx], ebx
	mov	ebx, DWORD PTR 24[ecx]
	mov	DWORD PTR 1140[edx], ebx
	mov	ebx, DWORD PTR 28[ecx]
	mov	DWORD PTR 1144[edx], ebx
	mov	ecx, DWORD PTR 32[ecx]
	mov	DWORD PTR 1148[edx], ecx
	mov	edx, DWORD PTR asciitable@GOT[eax]
	mov	ecx, DWORD PTR space@GOT[eax]
	mov	ebx, DWORD PTR [ecx]
	mov	DWORD PTR 1152[edx], ebx
	mov	ebx, DWORD PTR 4[ecx]
	mov	DWORD PTR 1156[edx], ebx
	mov	ebx, DWORD PTR 8[ecx]
	mov	DWORD PTR 1160[edx], ebx
	mov	ebx, DWORD PTR 12[ecx]
	mov	DWORD PTR 1164[edx], ebx
	mov	ebx, DWORD PTR 16[ecx]
	mov	DWORD PTR 1168[edx], ebx
	mov	ebx, DWORD PTR 20[ecx]
	mov	DWORD PTR 1172[edx], ebx
	mov	ebx, DWORD PTR 24[ecx]
	mov	DWORD PTR 1176[edx], ebx
	mov	ebx, DWORD PTR 28[ecx]
	mov	DWORD PTR 1180[edx], ebx
	mov	ecx, DWORD PTR 32[ecx]
	mov	DWORD PTR 1184[edx], ecx
	mov	edx, DWORD PTR asciitable@GOT[eax]
	mov	BYTE PTR 1188[edx], 1
	mov	edx, DWORD PTR exclamationMark@GOT[eax]
	mov	ecx, edx
	mov	edx, DWORD PTR asciitable@GOT[eax]
	lea	edx, 1189[edx]
	movzx	ecx, BYTE PTR [ecx]
	mov	BYTE PTR [edx], cl
	mov	edx, DWORD PTR asciitable@GOT[eax]
	mov	BYTE PTR 1224[edx], 1
	mov	edx, DWORD PTR gvoid@GOT[eax]
	mov	ecx, edx
	mov	edx, DWORD PTR asciitable@GOT[eax]
	lea	edx, 1225[edx]
	movzx	ecx, BYTE PTR [ecx]
	mov	BYTE PTR [edx], cl
	mov	edx, DWORD PTR asciitable@GOT[eax]
	mov	BYTE PTR 1260[edx], 1
	mov	edx, DWORD PTR gvoid@GOT[eax]
	mov	ecx, edx
	mov	edx, DWORD PTR asciitable@GOT[eax]
	lea	edx, 1261[edx]
	movzx	ecx, BYTE PTR [ecx]
	mov	BYTE PTR [edx], cl
	mov	edx, DWORD PTR asciitable@GOT[eax]
	mov	BYTE PTR 1296[edx], 1
	mov	edx, DWORD PTR gvoid@GOT[eax]
	mov	ecx, edx
	mov	edx, DWORD PTR asciitable@GOT[eax]
	lea	edx, 1297[edx]
	movzx	ecx, BYTE PTR [ecx]
	mov	BYTE PTR [edx], cl
	mov	edx, DWORD PTR asciitable@GOT[eax]
	mov	BYTE PTR 1332[edx], 1
	mov	edx, DWORD PTR gvoid@GOT[eax]
	mov	ecx, edx
	mov	edx, DWORD PTR asciitable@GOT[eax]
	lea	edx, 1333[edx]
	movzx	ecx, BYTE PTR [ecx]
	mov	BYTE PTR [edx], cl
	mov	edx, DWORD PTR asciitable@GOT[eax]
	mov	BYTE PTR 1368[edx], 1
	mov	edx, DWORD PTR gvoid@GOT[eax]
	mov	ecx, edx
	mov	edx, DWORD PTR asciitable@GOT[eax]
	lea	edx, 1369[edx]
	movzx	ecx, BYTE PTR [ecx]
	mov	BYTE PTR [edx], cl
	mov	edx, DWORD PTR asciitable@GOT[eax]
	mov	BYTE PTR 1404[edx], 1
	mov	edx, DWORD PTR gvoid@GOT[eax]
	mov	ecx, edx
	mov	edx, DWORD PTR asciitable@GOT[eax]
	lea	edx, 1405[edx]
	movzx	ecx, BYTE PTR [ecx]
	mov	BYTE PTR [edx], cl
	mov	edx, DWORD PTR asciitable@GOT[eax]
	mov	BYTE PTR 1440[edx], 1
	mov	edx, DWORD PTR leftBracket@GOT[eax]
	mov	ecx, edx
	mov	edx, DWORD PTR asciitable@GOT[eax]
	lea	edx, 1441[edx]
	movzx	ecx, BYTE PTR [ecx]
	mov	BYTE PTR [edx], cl
	mov	edx, DWORD PTR asciitable@GOT[eax]
	mov	BYTE PTR 1476[edx], 1
	mov	edx, DWORD PTR rightBracket@GOT[eax]
	mov	ecx, edx
	mov	edx, DWORD PTR asciitable@GOT[eax]
	lea	edx, 1477[edx]
	movzx	ecx, BYTE PTR [ecx]
	mov	BYTE PTR [edx], cl
	mov	edx, DWORD PTR asciitable@GOT[eax]
	mov	BYTE PTR 1512[edx], 1
	mov	edx, DWORD PTR gvoid@GOT[eax]
	mov	ecx, edx
	mov	edx, DWORD PTR asciitable@GOT[eax]
	lea	edx, 1513[edx]
	movzx	ecx, BYTE PTR [ecx]
	mov	BYTE PTR [edx], cl
	mov	edx, DWORD PTR asciitable@GOT[eax]
	mov	BYTE PTR 1548[edx], 1
	mov	edx, DWORD PTR plus@GOT[eax]
	mov	ecx, edx
	mov	edx, DWORD PTR asciitable@GOT[eax]
	lea	edx, 1549[edx]
	movzx	ecx, BYTE PTR [ecx]
	mov	BYTE PTR [edx], cl
	mov	edx, DWORD PTR asciitable@GOT[eax]
	mov	BYTE PTR 1584[edx], 1
	mov	edx, DWORD PTR comma@GOT[eax]
	mov	ecx, edx
	mov	edx, DWORD PTR asciitable@GOT[eax]
	lea	edx, 1585[edx]
	movzx	ecx, BYTE PTR [ecx]
	mov	BYTE PTR [edx], cl
	mov	edx, DWORD PTR asciitable@GOT[eax]
	mov	BYTE PTR 1620[edx], 1
	mov	edx, DWORD PTR minus@GOT[eax]
	mov	ecx, edx
	mov	edx, DWORD PTR asciitable@GOT[eax]
	lea	edx, 1621[edx]
	movzx	ecx, BYTE PTR [ecx]
	mov	BYTE PTR [edx], cl
	mov	edx, DWORD PTR asciitable@GOT[eax]
	mov	BYTE PTR 1656[edx], 1
	mov	edx, DWORD PTR dot@GOT[eax]
	mov	ecx, edx
	mov	edx, DWORD PTR asciitable@GOT[eax]
	lea	edx, 1657[edx]
	movzx	ecx, BYTE PTR [ecx]
	mov	BYTE PTR [edx], cl
	mov	edx, DWORD PTR asciitable@GOT[eax]
	mov	BYTE PTR 1692[edx], 1
	mov	edx, DWORD PTR gvoid@GOT[eax]
	mov	ecx, edx
	mov	edx, DWORD PTR asciitable@GOT[eax]
	lea	edx, 1693[edx]
	movzx	ecx, BYTE PTR [ecx]
	mov	BYTE PTR [edx], cl
	mov	edx, DWORD PTR asciitable@GOT[eax]
	mov	BYTE PTR 1728[edx], 1
	mov	edx, DWORD PTR num0@GOT[eax]
	mov	ecx, edx
	mov	edx, DWORD PTR asciitable@GOT[eax]
	lea	edx, 1729[edx]
	movzx	ecx, BYTE PTR [ecx]
	mov	BYTE PTR [edx], cl
	mov	edx, DWORD PTR asciitable@GOT[eax]
	mov	BYTE PTR 1764[edx], 1
	mov	edx, DWORD PTR num1@GOT[eax]
	mov	ecx, edx
	mov	edx, DWORD PTR asciitable@GOT[eax]
	lea	edx, 1765[edx]
	movzx	ecx, BYTE PTR [ecx]
	mov	BYTE PTR [edx], cl
	mov	edx, DWORD PTR asciitable@GOT[eax]
	mov	BYTE PTR 1800[edx], 1
	mov	edx, DWORD PTR num2@GOT[eax]
	mov	ecx, edx
	mov	edx, DWORD PTR asciitable@GOT[eax]
	lea	edx, 1801[edx]
	movzx	ecx, BYTE PTR [ecx]
	mov	BYTE PTR [edx], cl
	mov	edx, DWORD PTR asciitable@GOT[eax]
	mov	BYTE PTR 1836[edx], 1
	mov	edx, DWORD PTR num3@GOT[eax]
	mov	ecx, edx
	mov	edx, DWORD PTR asciitable@GOT[eax]
	lea	edx, 1837[edx]
	movzx	ecx, BYTE PTR [ecx]
	mov	BYTE PTR [edx], cl
	mov	edx, DWORD PTR asciitable@GOT[eax]
	mov	BYTE PTR 1872[edx], 1
	mov	edx, DWORD PTR num4@GOT[eax]
	mov	ecx, edx
	mov	edx, DWORD PTR asciitable@GOT[eax]
	lea	edx, 1873[edx]
	movzx	ecx, BYTE PTR [ecx]
	mov	BYTE PTR [edx], cl
	mov	edx, DWORD PTR asciitable@GOT[eax]
	mov	BYTE PTR 1908[edx], 1
	mov	edx, DWORD PTR num5@GOT[eax]
	mov	ecx, edx
	mov	edx, DWORD PTR asciitable@GOT[eax]
	lea	edx, 1909[edx]
	movzx	ecx, BYTE PTR [ecx]
	mov	BYTE PTR [edx], cl
	mov	edx, DWORD PTR asciitable@GOT[eax]
	mov	BYTE PTR 1944[edx], 1
	mov	edx, DWORD PTR num6@GOT[eax]
	mov	ecx, edx
	mov	edx, DWORD PTR asciitable@GOT[eax]
	lea	edx, 1945[edx]
	movzx	ecx, BYTE PTR [ecx]
	mov	BYTE PTR [edx], cl
	mov	edx, DWORD PTR asciitable@GOT[eax]
	mov	BYTE PTR 1980[edx], 1
	mov	edx, DWORD PTR num7@GOT[eax]
	mov	ecx, edx
	mov	edx, DWORD PTR asciitable@GOT[eax]
	lea	edx, 1981[edx]
	movzx	ecx, BYTE PTR [ecx]
	mov	BYTE PTR [edx], cl
	mov	edx, DWORD PTR asciitable@GOT[eax]
	mov	BYTE PTR 2016[edx], 1
	mov	edx, DWORD PTR num8@GOT[eax]
	mov	ecx, edx
	mov	edx, DWORD PTR asciitable@GOT[eax]
	lea	edx, 2017[edx]
	movzx	ecx, BYTE PTR [ecx]
	mov	BYTE PTR [edx], cl
	mov	edx, DWORD PTR asciitable@GOT[eax]
	mov	BYTE PTR 2052[edx], 1
	mov	edx, DWORD PTR num9@GOT[eax]
	mov	ecx, edx
	mov	edx, DWORD PTR asciitable@GOT[eax]
	lea	edx, 2053[edx]
	movzx	ecx, BYTE PTR [ecx]
	mov	BYTE PTR [edx], cl
	mov	edx, DWORD PTR asciitable@GOT[eax]
	mov	BYTE PTR 2088[edx], 1
	mov	edx, DWORD PTR colon@GOT[eax]
	mov	ecx, edx
	mov	edx, DWORD PTR asciitable@GOT[eax]
	lea	edx, 2089[edx]
	movzx	ecx, BYTE PTR [ecx]
	mov	BYTE PTR [edx], cl
	mov	edx, DWORD PTR asciitable@GOT[eax]
	mov	BYTE PTR 2124[edx], 1
	mov	edx, DWORD PTR semicolon@GOT[eax]
	mov	ecx, edx
	mov	edx, DWORD PTR asciitable@GOT[eax]
	lea	edx, 2125[edx]
	movzx	ecx, BYTE PTR [ecx]
	mov	BYTE PTR [edx], cl
	mov	edx, DWORD PTR asciitable@GOT[eax]
	mov	BYTE PTR 2160[edx], 1
	mov	edx, DWORD PTR gvoid@GOT[eax]
	mov	ecx, edx
	mov	edx, DWORD PTR asciitable@GOT[eax]
	lea	edx, 2161[edx]
	movzx	ecx, BYTE PTR [ecx]
	mov	BYTE PTR [edx], cl
	mov	edx, DWORD PTR asciitable@GOT[eax]
	mov	BYTE PTR 2196[edx], 1
	mov	edx, DWORD PTR equal@GOT[eax]
	mov	ecx, edx
	mov	edx, DWORD PTR asciitable@GOT[eax]
	lea	edx, 2197[edx]
	movzx	ecx, BYTE PTR [ecx]
	mov	BYTE PTR [edx], cl
	mov	edx, DWORD PTR asciitable@GOT[eax]
	mov	BYTE PTR 2232[edx], 1
	mov	edx, DWORD PTR gvoid@GOT[eax]
	mov	ecx, edx
	mov	edx, DWORD PTR asciitable@GOT[eax]
	lea	edx, 2233[edx]
	movzx	ecx, BYTE PTR [ecx]
	mov	BYTE PTR [edx], cl
	mov	edx, DWORD PTR asciitable@GOT[eax]
	mov	BYTE PTR 2268[edx], 1
	mov	edx, DWORD PTR questionMark@GOT[eax]
	mov	ecx, edx
	mov	edx, DWORD PTR asciitable@GOT[eax]
	lea	edx, 2269[edx]
	movzx	ecx, BYTE PTR [ecx]
	mov	BYTE PTR [edx], cl
	mov	edx, DWORD PTR asciitable@GOT[eax]
	mov	BYTE PTR 2304[edx], 1
	mov	edx, DWORD PTR gvoid@GOT[eax]
	mov	ecx, edx
	mov	edx, DWORD PTR asciitable@GOT[eax]
	lea	edx, 2305[edx]
	movzx	ecx, BYTE PTR [ecx]
	mov	BYTE PTR [edx], cl
	mov	edx, DWORD PTR asciitable@GOT[eax]
	mov	BYTE PTR 2340[edx], 1
	mov	edx, DWORD PTR ba@GOT[eax]
	mov	ecx, edx
	mov	edx, DWORD PTR asciitable@GOT[eax]
	lea	edx, 2341[edx]
	movzx	ecx, BYTE PTR [ecx]
	mov	BYTE PTR [edx], cl
	mov	edx, DWORD PTR asciitable@GOT[eax]
	mov	BYTE PTR 2376[edx], 1
	mov	edx, DWORD PTR bb@GOT[eax]
	mov	ecx, edx
	mov	edx, DWORD PTR asciitable@GOT[eax]
	lea	edx, 2377[edx]
	movzx	ecx, BYTE PTR [ecx]
	mov	BYTE PTR [edx], cl
	mov	edx, DWORD PTR asciitable@GOT[eax]
	mov	BYTE PTR 2412[edx], 1
	mov	edx, DWORD PTR bc@GOT[eax]
	mov	ecx, edx
	mov	edx, DWORD PTR asciitable@GOT[eax]
	lea	edx, 2413[edx]
	movzx	ecx, BYTE PTR [ecx]
	mov	BYTE PTR [edx], cl
	mov	edx, DWORD PTR asciitable@GOT[eax]
	mov	BYTE PTR 2448[edx], 1
	mov	edx, DWORD PTR bd@GOT[eax]
	mov	ecx, edx
	mov	edx, DWORD PTR asciitable@GOT[eax]
	lea	edx, 2449[edx]
	movzx	ecx, BYTE PTR [ecx]
	mov	BYTE PTR [edx], cl
	mov	edx, DWORD PTR asciitable@GOT[eax]
	mov	BYTE PTR 2484[edx], 1
	mov	edx, DWORD PTR be@GOT[eax]
	mov	ecx, edx
	mov	edx, DWORD PTR asciitable@GOT[eax]
	lea	edx, 2485[edx]
	movzx	ecx, BYTE PTR [ecx]
	mov	BYTE PTR [edx], cl
	mov	edx, DWORD PTR asciitable@GOT[eax]
	mov	BYTE PTR 2520[edx], 1
	mov	edx, DWORD PTR bf@GOT[eax]
	mov	ecx, edx
	mov	edx, DWORD PTR asciitable@GOT[eax]
	lea	edx, 2521[edx]
	movzx	ecx, BYTE PTR [ecx]
	mov	BYTE PTR [edx], cl
	mov	edx, DWORD PTR asciitable@GOT[eax]
	mov	BYTE PTR 2556[edx], 1
	mov	edx, DWORD PTR bg@GOT[eax]
	mov	ecx, edx
	mov	edx, DWORD PTR asciitable@GOT[eax]
	lea	edx, 2557[edx]
	movzx	ecx, BYTE PTR [ecx]
	mov	BYTE PTR [edx], cl
	mov	edx, DWORD PTR asciitable@GOT[eax]
	mov	BYTE PTR 2592[edx], 1
	mov	edx, DWORD PTR bh@GOT[eax]
	mov	ecx, edx
	mov	edx, DWORD PTR asciitable@GOT[eax]
	lea	edx, 2593[edx]
	movzx	ecx, BYTE PTR [ecx]
	mov	BYTE PTR [edx], cl
	mov	edx, DWORD PTR asciitable@GOT[eax]
	mov	BYTE PTR 2628[edx], 1
	mov	edx, DWORD PTR li@GOT[eax]
	mov	ecx, edx
	mov	edx, DWORD PTR asciitable@GOT[eax]
	lea	edx, 2629[edx]
	movzx	ecx, BYTE PTR [ecx]
	mov	BYTE PTR [edx], cl
	mov	edx, DWORD PTR asciitable@GOT[eax]
	mov	BYTE PTR 2664[edx], 1
	mov	edx, DWORD PTR lj@GOT[eax]
	mov	ecx, edx
	mov	edx, DWORD PTR asciitable@GOT[eax]
	lea	edx, 2665[edx]
	movzx	ecx, BYTE PTR [ecx]
	mov	BYTE PTR [edx], cl
	mov	edx, DWORD PTR asciitable@GOT[eax]
	mov	BYTE PTR 2700[edx], 1
	mov	edx, DWORD PTR bk@GOT[eax]
	mov	ecx, edx
	mov	edx, DWORD PTR asciitable@GOT[eax]
	lea	edx, 2701[edx]
	movzx	ecx, BYTE PTR [ecx]
	mov	BYTE PTR [edx], cl
	mov	edx, DWORD PTR asciitable@GOT[eax]
	mov	BYTE PTR 2736[edx], 1
	mov	edx, DWORD PTR bl@GOT[eax]
	mov	ecx, edx
	mov	edx, DWORD PTR asciitable@GOT[eax]
	lea	edx, 2737[edx]
	movzx	ecx, BYTE PTR [ecx]
	mov	BYTE PTR [edx], cl
	mov	edx, DWORD PTR asciitable@GOT[eax]
	mov	BYTE PTR 2772[edx], 1
	mov	edx, DWORD PTR bm@GOT[eax]
	mov	ecx, edx
	mov	edx, DWORD PTR asciitable@GOT[eax]
	lea	edx, 2773[edx]
	movzx	ecx, BYTE PTR [ecx]
	mov	BYTE PTR [edx], cl
	mov	edx, DWORD PTR asciitable@GOT[eax]
	mov	BYTE PTR 2808[edx], 1
	mov	edx, DWORD PTR bn@GOT[eax]
	mov	ecx, edx
	mov	edx, DWORD PTR asciitable@GOT[eax]
	lea	edx, 2809[edx]
	movzx	ecx, BYTE PTR [ecx]
	mov	BYTE PTR [edx], cl
	mov	edx, DWORD PTR asciitable@GOT[eax]
	mov	BYTE PTR 2844[edx], 1
	mov	edx, DWORD PTR bo@GOT[eax]
	mov	ecx, edx
	mov	edx, DWORD PTR asciitable@GOT[eax]
	lea	edx, 2845[edx]
	movzx	ecx, BYTE PTR [ecx]
	mov	BYTE PTR [edx], cl
	mov	edx, DWORD PTR asciitable@GOT[eax]
	mov	BYTE PTR 2880[edx], 1
	mov	edx, DWORD PTR bp@GOT[eax]
	mov	ecx, edx
	mov	edx, DWORD PTR asciitable@GOT[eax]
	lea	edx, 2881[edx]
	movzx	ecx, BYTE PTR [ecx]
	mov	BYTE PTR [edx], cl
	mov	edx, DWORD PTR asciitable@GOT[eax]
	mov	BYTE PTR 2916[edx], 1
	mov	edx, DWORD PTR lq@GOT[eax]
	mov	ecx, edx
	mov	edx, DWORD PTR asciitable@GOT[eax]
	lea	edx, 2917[edx]
	movzx	ecx, BYTE PTR [ecx]
	mov	BYTE PTR [edx], cl
	mov	edx, DWORD PTR asciitable@GOT[eax]
	mov	BYTE PTR 2952[edx], 1
	mov	edx, DWORD PTR br@GOT[eax]
	mov	ecx, edx
	mov	edx, DWORD PTR asciitable@GOT[eax]
	lea	edx, 2953[edx]
	movzx	ecx, BYTE PTR [ecx]
	mov	BYTE PTR [edx], cl
	mov	edx, DWORD PTR asciitable@GOT[eax]
	mov	BYTE PTR 2988[edx], 1
	mov	edx, DWORD PTR bs@GOT[eax]
	mov	ecx, edx
	mov	edx, DWORD PTR asciitable@GOT[eax]
	lea	edx, 2989[edx]
	movzx	ecx, BYTE PTR [ecx]
	mov	BYTE PTR [edx], cl
	mov	edx, DWORD PTR asciitable@GOT[eax]
	mov	BYTE PTR 3024[edx], 1
	mov	edx, DWORD PTR bt@GOT[eax]
	mov	ecx, edx
	mov	edx, DWORD PTR asciitable@GOT[eax]
	lea	edx, 3025[edx]
	movzx	ecx, BYTE PTR [ecx]
	mov	BYTE PTR [edx], cl
	mov	edx, DWORD PTR asciitable@GOT[eax]
	mov	BYTE PTR 3060[edx], 1
	mov	edx, DWORD PTR bu@GOT[eax]
	mov	ecx, edx
	mov	edx, DWORD PTR asciitable@GOT[eax]
	lea	edx, 3061[edx]
	movzx	ecx, BYTE PTR [ecx]
	mov	BYTE PTR [edx], cl
	mov	edx, DWORD PTR asciitable@GOT[eax]
	mov	BYTE PTR 3096[edx], 1
	mov	edx, DWORD PTR bv@GOT[eax]
	mov	ecx, edx
	mov	edx, DWORD PTR asciitable@GOT[eax]
	lea	edx, 3097[edx]
	movzx	ecx, BYTE PTR [ecx]
	mov	BYTE PTR [edx], cl
	mov	edx, DWORD PTR asciitable@GOT[eax]
	mov	BYTE PTR 3132[edx], 1
	mov	edx, DWORD PTR bw@GOT[eax]
	mov	ecx, edx
	mov	edx, DWORD PTR asciitable@GOT[eax]
	lea	edx, 3133[edx]
	movzx	ecx, BYTE PTR [ecx]
	mov	BYTE PTR [edx], cl
	mov	edx, DWORD PTR asciitable@GOT[eax]
	mov	BYTE PTR 3168[edx], 1
	mov	edx, DWORD PTR bx@GOT[eax]
	mov	ecx, edx
	mov	edx, DWORD PTR asciitable@GOT[eax]
	lea	edx, 3169[edx]
	movzx	ecx, BYTE PTR [ecx]
	mov	BYTE PTR [edx], cl
	mov	edx, DWORD PTR asciitable@GOT[eax]
	mov	BYTE PTR 3204[edx], 1
	mov	edx, DWORD PTR by@GOT[eax]
	mov	ecx, edx
	mov	edx, DWORD PTR asciitable@GOT[eax]
	lea	edx, 3205[edx]
	movzx	ecx, BYTE PTR [ecx]
	mov	BYTE PTR [edx], cl
	mov	edx, DWORD PTR asciitable@GOT[eax]
	mov	BYTE PTR 3240[edx], 1
	mov	edx, DWORD PTR bz@GOT[eax]
	mov	ecx, edx
	mov	edx, DWORD PTR asciitable@GOT[eax]
	lea	edx, 3241[edx]
	movzx	ecx, BYTE PTR [ecx]
	mov	BYTE PTR [edx], cl
	mov	edx, DWORD PTR asciitable@GOT[eax]
	mov	BYTE PTR 3276[edx], 1
	mov	edx, DWORD PTR gvoid@GOT[eax]
	mov	ecx, edx
	mov	edx, DWORD PTR asciitable@GOT[eax]
	lea	edx, 3277[edx]
	movzx	ecx, BYTE PTR [ecx]
	mov	BYTE PTR [edx], cl
	mov	edx, DWORD PTR asciitable@GOT[eax]
	mov	BYTE PTR 3312[edx], 1
	mov	edx, DWORD PTR gvoid@GOT[eax]
	mov	ecx, edx
	mov	edx, DWORD PTR asciitable@GOT[eax]
	lea	edx, 3313[edx]
	movzx	ecx, BYTE PTR [ecx]
	mov	BYTE PTR [edx], cl
	mov	edx, DWORD PTR asciitable@GOT[eax]
	mov	BYTE PTR 3348[edx], 1
	mov	edx, DWORD PTR gvoid@GOT[eax]
	mov	ecx, edx
	mov	edx, DWORD PTR asciitable@GOT[eax]
	lea	edx, 3349[edx]
	movzx	ecx, BYTE PTR [ecx]
	mov	BYTE PTR [edx], cl
	mov	edx, DWORD PTR asciitable@GOT[eax]
	mov	BYTE PTR 3384[edx], 1
	mov	edx, DWORD PTR gvoid@GOT[eax]
	mov	ecx, edx
	mov	edx, DWORD PTR asciitable@GOT[eax]
	lea	edx, 3385[edx]
	movzx	ecx, BYTE PTR [ecx]
	mov	BYTE PTR [edx], cl
	mov	edx, DWORD PTR asciitable@GOT[eax]
	mov	BYTE PTR 3420[edx], 1
	mov	edx, DWORD PTR underLine@GOT[eax]
	mov	ecx, edx
	mov	edx, DWORD PTR asciitable@GOT[eax]
	lea	edx, 3421[edx]
	movzx	ecx, BYTE PTR [ecx]
	mov	BYTE PTR [edx], cl
	mov	edx, DWORD PTR asciitable@GOT[eax]
	mov	BYTE PTR 3456[edx], 1
	mov	edx, DWORD PTR gvoid@GOT[eax]
	mov	ecx, edx
	mov	edx, DWORD PTR asciitable@GOT[eax]
	lea	edx, 3457[edx]
	movzx	ecx, BYTE PTR [ecx]
	mov	BYTE PTR [edx], cl
	mov	edx, DWORD PTR asciitable@GOT[eax]
	mov	BYTE PTR 3492[edx], 1
	mov	edx, DWORD PTR ba@GOT[eax]
	mov	ecx, edx
	mov	edx, DWORD PTR asciitable@GOT[eax]
	lea	edx, 3493[edx]
	movzx	ecx, BYTE PTR [ecx]
	mov	BYTE PTR [edx], cl
	mov	edx, DWORD PTR asciitable@GOT[eax]
	mov	BYTE PTR 3528[edx], 1
	mov	edx, DWORD PTR bb@GOT[eax]
	mov	ecx, edx
	mov	edx, DWORD PTR asciitable@GOT[eax]
	lea	edx, 3529[edx]
	movzx	ecx, BYTE PTR [ecx]
	mov	BYTE PTR [edx], cl
	mov	edx, DWORD PTR asciitable@GOT[eax]
	mov	BYTE PTR 3564[edx], 1
	mov	edx, DWORD PTR bc@GOT[eax]
	mov	ecx, edx
	mov	edx, DWORD PTR asciitable@GOT[eax]
	lea	edx, 3565[edx]
	movzx	ecx, BYTE PTR [ecx]
	mov	BYTE PTR [edx], cl
	mov	edx, DWORD PTR asciitable@GOT[eax]
	mov	BYTE PTR 3600[edx], 1
	mov	edx, DWORD PTR bd@GOT[eax]
	mov	ecx, edx
	mov	edx, DWORD PTR asciitable@GOT[eax]
	lea	edx, 3601[edx]
	movzx	ecx, BYTE PTR [ecx]
	mov	BYTE PTR [edx], cl
	mov	edx, DWORD PTR asciitable@GOT[eax]
	mov	BYTE PTR 3636[edx], 1
	mov	edx, DWORD PTR be@GOT[eax]
	mov	ecx, edx
	mov	edx, DWORD PTR asciitable@GOT[eax]
	lea	edx, 3637[edx]
	movzx	ecx, BYTE PTR [ecx]
	mov	BYTE PTR [edx], cl
	mov	edx, DWORD PTR asciitable@GOT[eax]
	mov	BYTE PTR 3672[edx], 1
	mov	edx, DWORD PTR bf@GOT[eax]
	mov	ecx, edx
	mov	edx, DWORD PTR asciitable@GOT[eax]
	lea	edx, 3673[edx]
	movzx	ecx, BYTE PTR [ecx]
	mov	BYTE PTR [edx], cl
	mov	edx, DWORD PTR asciitable@GOT[eax]
	mov	BYTE PTR 3708[edx], 1
	mov	edx, DWORD PTR bg@GOT[eax]
	mov	ecx, edx
	mov	edx, DWORD PTR asciitable@GOT[eax]
	lea	edx, 3709[edx]
	movzx	ecx, BYTE PTR [ecx]
	mov	BYTE PTR [edx], cl
	mov	edx, DWORD PTR asciitable@GOT[eax]
	mov	BYTE PTR 3744[edx], 1
	mov	edx, DWORD PTR bh@GOT[eax]
	mov	ecx, edx
	mov	edx, DWORD PTR asciitable@GOT[eax]
	lea	edx, 3745[edx]
	movzx	ecx, BYTE PTR [ecx]
	mov	BYTE PTR [edx], cl
	mov	edx, DWORD PTR asciitable@GOT[eax]
	mov	BYTE PTR 3780[edx], 1
	mov	edx, DWORD PTR li@GOT[eax]
	mov	ecx, edx
	mov	edx, DWORD PTR asciitable@GOT[eax]
	lea	edx, 3781[edx]
	movzx	ecx, BYTE PTR [ecx]
	mov	BYTE PTR [edx], cl
	mov	edx, DWORD PTR asciitable@GOT[eax]
	mov	BYTE PTR 3816[edx], 1
	mov	edx, DWORD PTR lj@GOT[eax]
	mov	ecx, edx
	mov	edx, DWORD PTR asciitable@GOT[eax]
	lea	edx, 3817[edx]
	movzx	ecx, BYTE PTR [ecx]
	mov	BYTE PTR [edx], cl
	mov	edx, DWORD PTR asciitable@GOT[eax]
	mov	BYTE PTR 3852[edx], 1
	mov	edx, DWORD PTR bk@GOT[eax]
	mov	ecx, edx
	mov	edx, DWORD PTR asciitable@GOT[eax]
	lea	edx, 3853[edx]
	movzx	ecx, BYTE PTR [ecx]
	mov	BYTE PTR [edx], cl
	mov	edx, DWORD PTR asciitable@GOT[eax]
	mov	BYTE PTR 3888[edx], 1
	mov	edx, DWORD PTR bl@GOT[eax]
	mov	ecx, edx
	mov	edx, DWORD PTR asciitable@GOT[eax]
	lea	edx, 3889[edx]
	movzx	ecx, BYTE PTR [ecx]
	mov	BYTE PTR [edx], cl
	mov	edx, DWORD PTR asciitable@GOT[eax]
	mov	BYTE PTR 3924[edx], 1
	mov	edx, DWORD PTR bm@GOT[eax]
	mov	ecx, edx
	mov	edx, DWORD PTR asciitable@GOT[eax]
	lea	edx, 3925[edx]
	movzx	ecx, BYTE PTR [ecx]
	mov	BYTE PTR [edx], cl
	mov	edx, DWORD PTR asciitable@GOT[eax]
	mov	BYTE PTR 3960[edx], 1
	mov	edx, DWORD PTR bn@GOT[eax]
	mov	ecx, edx
	mov	edx, DWORD PTR asciitable@GOT[eax]
	lea	edx, 3961[edx]
	movzx	ecx, BYTE PTR [ecx]
	mov	BYTE PTR [edx], cl
	mov	edx, DWORD PTR asciitable@GOT[eax]
	mov	BYTE PTR 3996[edx], 1
	mov	edx, DWORD PTR bo@GOT[eax]
	mov	ecx, edx
	mov	edx, DWORD PTR asciitable@GOT[eax]
	lea	edx, 3997[edx]
	movzx	ecx, BYTE PTR [ecx]
	mov	BYTE PTR [edx], cl
	mov	edx, DWORD PTR asciitable@GOT[eax]
	mov	BYTE PTR 4032[edx], 1
	mov	edx, DWORD PTR bp@GOT[eax]
	mov	ecx, edx
	mov	edx, DWORD PTR asciitable@GOT[eax]
	lea	edx, 4033[edx]
	movzx	ecx, BYTE PTR [ecx]
	mov	BYTE PTR [edx], cl
	mov	edx, DWORD PTR asciitable@GOT[eax]
	mov	BYTE PTR 4068[edx], 1
	mov	edx, DWORD PTR lq@GOT[eax]
	mov	ecx, edx
	mov	edx, DWORD PTR asciitable@GOT[eax]
	lea	edx, 4069[edx]
	movzx	ecx, BYTE PTR [ecx]
	mov	BYTE PTR [edx], cl
	mov	edx, DWORD PTR asciitable@GOT[eax]
	mov	BYTE PTR 4104[edx], 1
	mov	edx, DWORD PTR br@GOT[eax]
	mov	ecx, edx
	mov	edx, DWORD PTR asciitable@GOT[eax]
	lea	edx, 4105[edx]
	movzx	ecx, BYTE PTR [ecx]
	mov	BYTE PTR [edx], cl
	mov	edx, DWORD PTR asciitable@GOT[eax]
	mov	BYTE PTR 4140[edx], 1
	mov	edx, DWORD PTR bs@GOT[eax]
	mov	ecx, edx
	mov	edx, DWORD PTR asciitable@GOT[eax]
	lea	edx, 4141[edx]
	movzx	ecx, BYTE PTR [ecx]
	mov	BYTE PTR [edx], cl
	mov	edx, DWORD PTR asciitable@GOT[eax]
	mov	BYTE PTR 4176[edx], 1
	mov	edx, DWORD PTR bt@GOT[eax]
	mov	ecx, edx
	mov	edx, DWORD PTR asciitable@GOT[eax]
	lea	edx, 4177[edx]
	movzx	ecx, BYTE PTR [ecx]
	mov	BYTE PTR [edx], cl
	mov	edx, DWORD PTR asciitable@GOT[eax]
	mov	BYTE PTR 4212[edx], 1
	mov	edx, DWORD PTR bu@GOT[eax]
	mov	ecx, edx
	mov	edx, DWORD PTR asciitable@GOT[eax]
	lea	edx, 4213[edx]
	movzx	ecx, BYTE PTR [ecx]
	mov	BYTE PTR [edx], cl
	mov	edx, DWORD PTR asciitable@GOT[eax]
	mov	BYTE PTR 4248[edx], 1
	mov	edx, DWORD PTR bv@GOT[eax]
	mov	ecx, edx
	mov	edx, DWORD PTR asciitable@GOT[eax]
	lea	edx, 4249[edx]
	movzx	ecx, BYTE PTR [ecx]
	mov	BYTE PTR [edx], cl
	mov	edx, DWORD PTR asciitable@GOT[eax]
	mov	BYTE PTR 4284[edx], 1
	mov	edx, DWORD PTR bw@GOT[eax]
	mov	ecx, edx
	mov	edx, DWORD PTR asciitable@GOT[eax]
	lea	edx, 4285[edx]
	movzx	ecx, BYTE PTR [ecx]
	mov	BYTE PTR [edx], cl
	mov	edx, DWORD PTR asciitable@GOT[eax]
	mov	BYTE PTR 4320[edx], 1
	mov	edx, DWORD PTR bx@GOT[eax]
	mov	ecx, edx
	mov	edx, DWORD PTR asciitable@GOT[eax]
	lea	edx, 4321[edx]
	movzx	ecx, BYTE PTR [ecx]
	mov	BYTE PTR [edx], cl
	mov	edx, DWORD PTR asciitable@GOT[eax]
	mov	BYTE PTR 4356[edx], 1
	mov	edx, DWORD PTR by@GOT[eax]
	mov	ecx, edx
	mov	edx, DWORD PTR asciitable@GOT[eax]
	lea	edx, 4357[edx]
	movzx	ecx, BYTE PTR [ecx]
	mov	BYTE PTR [edx], cl
	mov	edx, DWORD PTR asciitable@GOT[eax]
	mov	BYTE PTR 4392[edx], 1
	mov	edx, DWORD PTR bz@GOT[eax]
	mov	ecx, edx
	mov	edx, DWORD PTR asciitable@GOT[eax]
	lea	edx, 4393[edx]
	movzx	ecx, BYTE PTR [ecx]
	mov	BYTE PTR [edx], cl
	mov	edx, DWORD PTR asciitable@GOT[eax]
	mov	BYTE PTR 4428[edx], 1
	mov	edx, DWORD PTR gvoid@GOT[eax]
	mov	ecx, edx
	mov	edx, DWORD PTR asciitable@GOT[eax]
	lea	edx, 4429[edx]
	movzx	ecx, BYTE PTR [ecx]
	mov	BYTE PTR [edx], cl
	mov	edx, DWORD PTR asciitable@GOT[eax]
	mov	BYTE PTR 4464[edx], 1
	mov	edx, DWORD PTR gvoid@GOT[eax]
	mov	ecx, edx
	mov	edx, DWORD PTR asciitable@GOT[eax]
	lea	edx, 4465[edx]
	movzx	ecx, BYTE PTR [ecx]
	mov	BYTE PTR [edx], cl
	mov	edx, DWORD PTR asciitable@GOT[eax]
	mov	BYTE PTR 4500[edx], 1
	mov	edx, DWORD PTR gvoid@GOT[eax]
	mov	ecx, edx
	mov	edx, DWORD PTR asciitable@GOT[eax]
	lea	edx, 4501[edx]
	movzx	ecx, BYTE PTR [ecx]
	mov	BYTE PTR [edx], cl
	mov	edx, DWORD PTR asciitable@GOT[eax]
	mov	BYTE PTR 4536[edx], 1
	mov	edx, DWORD PTR gvoid@GOT[eax]
	mov	ecx, edx
	mov	edx, DWORD PTR asciitable@GOT[eax]
	lea	edx, 4537[edx]
	movzx	ecx, BYTE PTR [ecx]
	mov	BYTE PTR [edx], cl
	mov	edx, DWORD PTR asciitable@GOT[eax]
	mov	eax, DWORD PTR unprintable@GOT[eax]
	mov	ecx, DWORD PTR [eax]
	mov	DWORD PTR 4572[edx], ecx
	mov	ecx, DWORD PTR 4[eax]
	mov	DWORD PTR 4576[edx], ecx
	mov	ecx, DWORD PTR 8[eax]
	mov	DWORD PTR 4580[edx], ecx
	mov	ecx, DWORD PTR 12[eax]
	mov	DWORD PTR 4584[edx], ecx
	mov	ecx, DWORD PTR 16[eax]
	mov	DWORD PTR 4588[edx], ecx
	mov	ecx, DWORD PTR 20[eax]
	mov	DWORD PTR 4592[edx], ecx
	mov	ecx, DWORD PTR 24[eax]
	mov	DWORD PTR 4596[edx], ecx
	mov	ecx, DWORD PTR 28[eax]
	mov	DWORD PTR 4600[edx], ecx
	mov	eax, DWORD PTR 32[eax]
	mov	DWORD PTR 4604[edx], eax
	nop
	pop	ebx
	.cfi_restore 3
	pop	ebp
	.cfi_restore 5
	.cfi_def_cfa 4, 4
	ret
	.cfi_endproc
.LFE0:
	.size	_Z9initasciiv, .-_Z9initasciiv
	.globl	videoAddr
	.bss
	.align 4
	.type	videoAddr, @object
	.size	videoAddr, 4
videoAddr:
	.zero	4
	.text
	.globl	_Z10getSecondsv
	.type	_Z10getSecondsv, @function
_Z10getSecondsv:
.LFB1:
	.cfi_startproc
	push	ebp
	.cfi_def_cfa_offset 8
	.cfi_offset 5, -8
	mov	ebp, esp
	.cfi_def_cfa_register 5
	call	__x86.get_pc_thunk.ax
	add	eax, OFFSET FLAT:_GLOBAL_OFFSET_TABLE_
#APP
# 17 "main.cpp" 1
	xor eax, eax
# 0 "" 2
# 18 "main.cpp" 1
	out 0x70, ax
# 0 "" 2
# 19 "main.cpp" 1
	in ax, 0x71
# 0 "" 2
#NO_APP
	nop
	pop	ebp
	.cfi_restore 5
	.cfi_def_cfa 4, 4
	ret
	.cfi_endproc
.LFE1:
	.size	_Z10getSecondsv, .-_Z10getSecondsv
	.globl	_Z13bcd_to_numberc
	.type	_Z13bcd_to_numberc, @function
_Z13bcd_to_numberc:
.LFB2:
	.cfi_startproc
	push	ebp
	.cfi_def_cfa_offset 8
	.cfi_offset 5, -8
	mov	ebp, esp
	.cfi_def_cfa_register 5
	sub	esp, 4
	call	__x86.get_pc_thunk.ax
	add	eax, OFFSET FLAT:_GLOBAL_OFFSET_TABLE_
	mov	eax, DWORD PTR 8[ebp]
	mov	BYTE PTR -4[ebp], al
	movsx	eax, BYTE PTR -4[ebp]
	sar	eax, 4
	and	eax, 15
	mov	edx, eax
	mov	eax, edx
	sal	eax, 2
	add	eax, edx
	add	eax, eax
	mov	edx, eax
	movsx	eax, BYTE PTR -4[ebp]
	and	eax, 15
	add	eax, edx
	leave
	.cfi_restore 5
	.cfi_def_cfa 4, 4
	ret
	.cfi_endproc
.LFE2:
	.size	_Z13bcd_to_numberc, .-_Z13bcd_to_numberc
	.globl	_Z6binifyPch
	.type	_Z6binifyPch, @function
_Z6binifyPch:
.LFB3:
	.cfi_startproc
	push	ebp
	.cfi_def_cfa_offset 8
	.cfi_offset 5, -8
	mov	ebp, esp
	.cfi_def_cfa_register 5
	sub	esp, 20
	call	__x86.get_pc_thunk.ax
	add	eax, OFFSET FLAT:_GLOBAL_OFFSET_TABLE_
	mov	eax, DWORD PTR 12[ebp]
	mov	BYTE PTR -20[ebp], al
	mov	DWORD PTR -4[ebp], 0
.L9:
	cmp	DWORD PTR -4[ebp], 7
	jg	.L10
	movzx	eax, BYTE PTR -20[ebp]
	and	eax, 1
	test	eax, eax
	je	.L7
	mov	edx, DWORD PTR -4[ebp]
	mov	eax, DWORD PTR 8[ebp]
	add	eax, edx
	mov	BYTE PTR [eax], 49
	jmp	.L8
.L7:
	mov	edx, DWORD PTR -4[ebp]
	mov	eax, DWORD PTR 8[ebp]
	add	eax, edx
	mov	BYTE PTR [eax], 48
.L8:
	movzx	eax, BYTE PTR -20[ebp]
	shr	al
	mov	BYTE PTR -20[ebp], al
	add	DWORD PTR -4[ebp], 1
	jmp	.L9
.L10:
	nop
	leave
	.cfi_restore 5
	.cfi_def_cfa 4, 4
	ret
	.cfi_endproc
.LFE3:
	.size	_Z6binifyPch, .-_Z6binifyPch
	.globl	_Z6_startv
	.type	_Z6_startv, @function
_Z6_startv:
.LFB4:
	.cfi_startproc
	push	ebp
	.cfi_def_cfa_offset 8
	.cfi_offset 5, -8
	mov	ebp, esp
	.cfi_def_cfa_register 5
	push	edi
	push	esi
	push	ebx
	sub	esp, 588
	.cfi_offset 7, -12
	.cfi_offset 6, -16
	.cfi_offset 3, -20
	call	__x86.get_pc_thunk.bx
	add	ebx, OFFSET FLAT:_GLOBAL_OFFSET_TABLE_
	mov	eax, 32768
	mov	edx, DWORD PTR [eax]
	mov	eax, DWORD PTR videoAddr@GOT[ebx]
	mov	DWORD PTR [eax], edx
	call	_Z9initasciiv@PLT
	mov	DWORD PTR -319[ebp], 1920298841
	mov	DWORD PTR -315[ebp], 543449376
	mov	DWORD PTR -311[ebp], 1701995880
	mov	DWORD PTR -307[ebp], 674766906
	mov	DWORD PTR -303[ebp], 691023928
	mov	DWORD PTR -299[ebp], 758461749
	mov	DWORD PTR -295[ebp], 858600755
	mov	DWORD PTR -291[ebp], 53
	lea	eax, -287[ebp]
	mov	ecx, 223
	mov	esi, 0
	mov	DWORD PTR [eax], esi
	mov	DWORD PTR -4[eax+ecx], esi
	lea	edx, 4[eax]
	and	edx, -4
	sub	eax, edx
	add	ecx, eax
	and	ecx, -4
	shr	ecx, 2
	mov	edi, edx
	mov	eax, esi
	rep stosd
	sub	esp, 8
	push	5
	push	2
	push	65280
	push	0
	push	0
	lea	eax, -319[ebp]
	push	eax
	call	_Z10drawStringPciiiii@PLT
	add	esp, 32
	mov	DWORD PTR -40[ebp], 0
	mov	DWORD PTR -48[ebp], 2
	mov	DWORD PTR -52[ebp], 5
	mov	DWORD PTR -44[ebp], 200
	mov	eax, DWORD PTR -40[ebp]
	mov	DWORD PTR -56[ebp], eax
	mov	DWORD PTR -60[ebp], 16777215
	lea	edx, -600[ebp]
	mov	eax, 0
	mov	ecx, 70
	mov	edi, edx
	rep stosd
	mov	DWORD PTR -600[ebp], 16
	mov	DWORD PTR -596[ebp], 17
	mov	DWORD PTR -592[ebp], 18
	mov	DWORD PTR -588[ebp], 19
	mov	DWORD PTR -584[ebp], 20
	mov	DWORD PTR -580[ebp], 21
	mov	DWORD PTR -576[ebp], 22
	mov	DWORD PTR -572[ebp], 23
	mov	DWORD PTR -568[ebp], 24
	mov	DWORD PTR -564[ebp], 25
	mov	DWORD PTR -560[ebp], 30
	mov	DWORD PTR -556[ebp], 31
	mov	DWORD PTR -552[ebp], 32
	mov	DWORD PTR -548[ebp], 33
	mov	DWORD PTR -544[ebp], 34
	mov	DWORD PTR -540[ebp], 35
	mov	DWORD PTR -536[ebp], 36
	mov	DWORD PTR -532[ebp], 37
	mov	DWORD PTR -528[ebp], 38
	mov	DWORD PTR -524[ebp], 44
	mov	DWORD PTR -520[ebp], 45
	mov	DWORD PTR -516[ebp], 46
	mov	DWORD PTR -512[ebp], 47
	mov	DWORD PTR -508[ebp], 48
	mov	DWORD PTR -504[ebp], 49
	mov	DWORD PTR -500[ebp], 50
	mov	DWORD PTR -496[ebp], 57
	mov	DWORD PTR -492[ebp], 28
	mov	DWORD PTR -460[ebp], 113
	mov	DWORD PTR -456[ebp], 119
	mov	DWORD PTR -452[ebp], 101
	mov	DWORD PTR -448[ebp], 114
	mov	DWORD PTR -444[ebp], 116
	mov	DWORD PTR -440[ebp], 121
	mov	DWORD PTR -436[ebp], 117
	mov	DWORD PTR -432[ebp], 105
	mov	DWORD PTR -428[ebp], 111
	mov	DWORD PTR -424[ebp], 112
	mov	DWORD PTR -420[ebp], 97
	mov	DWORD PTR -416[ebp], 115
	mov	DWORD PTR -412[ebp], 100
	mov	DWORD PTR -408[ebp], 102
	mov	DWORD PTR -404[ebp], 103
	mov	DWORD PTR -400[ebp], 104
	mov	DWORD PTR -396[ebp], 106
	mov	DWORD PTR -392[ebp], 107
	mov	DWORD PTR -388[ebp], 108
	mov	DWORD PTR -384[ebp], 122
	mov	DWORD PTR -380[ebp], 120
	mov	DWORD PTR -376[ebp], 99
	mov	DWORD PTR -372[ebp], 118
	mov	DWORD PTR -368[ebp], 98
	mov	DWORD PTR -364[ebp], 110
	mov	DWORD PTR -360[ebp], 109
	mov	DWORD PTR -356[ebp], 32
	mov	DWORD PTR -352[ebp], 10
.L21:
	call	_Z6getKeyv@PLT
	mov	DWORD PTR -64[ebp], eax
	mov	eax, DWORD PTR -28[ebp]
	cmp	eax, DWORD PTR -64[ebp]
	je	.L21
	mov	DWORD PTR -32[ebp], 0
	mov	DWORD PTR -36[ebp], 0
.L15:
	cmp	DWORD PTR -36[ebp], 34
	jg	.L13
	mov	eax, DWORD PTR -36[ebp]
	mov	eax, DWORD PTR -600[ebp+eax*4]
	cmp	DWORD PTR -64[ebp], eax
	jne	.L14
	mov	eax, DWORD PTR -36[ebp]
	add	eax, 35
	mov	eax, DWORD PTR -600[ebp+eax*4]
	mov	DWORD PTR -32[ebp], eax
	jmp	.L13
.L14:
	add	DWORD PTR -36[ebp], 1
	jmp	.L15
.L13:
	cmp	DWORD PTR -32[ebp], 0
	je	.L16
	mov	eax, DWORD PTR -32[ebp]
	movsx	eax, al
	sub	esp, 12
	push	eax
	push	2
	push	16711680
	push	600
	push	DWORD PTR -40[ebp]
	call	_Z8drawChariiiic@PLT
	add	esp, 32
	cmp	DWORD PTR -32[ebp], 32
	jne	.L17
	mov	edx, DWORD PTR -48[ebp]
	mov	eax, edx
	sal	eax, 2
	add	edx, eax
	mov	eax, DWORD PTR -52[ebp]
	add	eax, edx
	add	DWORD PTR -40[ebp], eax
	add	DWORD PTR -36[ebp], 1
	jmp	.L16
.L17:
	cmp	DWORD PTR -32[ebp], 10
	jne	.L19
	mov	eax, DWORD PTR -56[ebp]
	mov	DWORD PTR -40[ebp], eax
	mov	edx, DWORD PTR -48[ebp]
	mov	eax, edx
	sal	eax, 3
	sub	eax, edx
	mov	edx, eax
	mov	eax, DWORD PTR -52[ebp]
	add	eax, edx
	add	DWORD PTR -44[ebp], eax
	add	DWORD PTR -36[ebp], 1
	jmp	.L16
.L19:
	mov	edx, DWORD PTR -48[ebp]
	mov	eax, edx
	sal	eax, 2
	add	edx, eax
	mov	eax, DWORD PTR -40[ebp]
	add	edx, eax
	mov	eax, DWORD PTR -52[ebp]
	add	eax, edx
	cmp	eax, 1024
	jle	.L20
	mov	eax, DWORD PTR -56[ebp]
	mov	DWORD PTR -40[ebp], eax
	mov	edx, DWORD PTR -48[ebp]
	mov	eax, edx
	sal	eax, 3
	sub	eax, edx
	mov	edx, eax
	mov	eax, DWORD PTR -52[ebp]
	add	eax, edx
	add	DWORD PTR -44[ebp], eax
	jmp	.L16
.L20:
	mov	eax, DWORD PTR -32[ebp]
	movsx	eax, al
	sub	esp, 12
	push	eax
	push	DWORD PTR -48[ebp]
	push	DWORD PTR -60[ebp]
	push	DWORD PTR -44[ebp]
	push	DWORD PTR -40[ebp]
	call	_Z8drawChariiiic@PLT
	add	esp, 32
	mov	edx, DWORD PTR -48[ebp]
	mov	eax, edx
	sal	eax, 2
	add	edx, eax
	mov	eax, DWORD PTR -52[ebp]
	add	eax, edx
	add	DWORD PTR -40[ebp], eax
	add	DWORD PTR -36[ebp], 1
.L16:
	mov	eax, DWORD PTR -64[ebp]
	mov	DWORD PTR -28[ebp], eax
	jmp	.L21
	.cfi_endproc
.LFE4:
	.size	_Z6_startv, .-_Z6_startv
	.globl	_Z6getKeyv
	.type	_Z6getKeyv, @function
_Z6getKeyv:
.LFB5:
	.cfi_startproc
	push	ebp
	.cfi_def_cfa_offset 8
	.cfi_offset 5, -8
	mov	ebp, esp
	.cfi_def_cfa_register 5
	call	__x86.get_pc_thunk.ax
	add	eax, OFFSET FLAT:_GLOBAL_OFFSET_TABLE_
#APP
# 104 "main.cpp" 1
	xor eax,eax
# 0 "" 2
# 105 "main.cpp" 1
	in al,0x60
# 0 "" 2
#NO_APP
	nop
	pop	ebp
	.cfi_restore 5
	.cfi_def_cfa 4, 4
	ret
	.cfi_endproc
.LFE5:
	.size	_Z6getKeyv, .-_Z6getKeyv
	.globl	_Z10keyPressedv
	.type	_Z10keyPressedv, @function
_Z10keyPressedv:
.LFB6:
	.cfi_startproc
	push	ebp
	.cfi_def_cfa_offset 8
	.cfi_offset 5, -8
	mov	ebp, esp
	.cfi_def_cfa_register 5
	call	__x86.get_pc_thunk.ax
	add	eax, OFFSET FLAT:_GLOBAL_OFFSET_TABLE_
#APP
# 109 "main.cpp" 1
	xor eax,eax
# 0 "" 2
# 110 "main.cpp" 1
	in al,0x61
# 0 "" 2
#NO_APP
	nop
	pop	ebp
	.cfi_restore 5
	.cfi_def_cfa 4, 4
	ret
	.cfi_endproc
.LFE6:
	.size	_Z10keyPressedv, .-_Z10keyPressedv
	.globl	_Z8drawChariiiic
	.type	_Z8drawChariiiic, @function
_Z8drawChariiiic:
.LFB7:
	.cfi_startproc
	push	ebp
	.cfi_def_cfa_offset 8
	.cfi_offset 5, -8
	mov	ebp, esp
	.cfi_def_cfa_register 5
	push	edi
	push	esi
	push	ebx
	sub	esp, 92
	.cfi_offset 7, -12
	.cfi_offset 6, -16
	.cfi_offset 3, -20
	call	__x86.get_pc_thunk.bx
	add	ebx, OFFSET FLAT:_GLOBAL_OFFSET_TABLE_
	mov	eax, DWORD PTR 24[ebp]
	mov	BYTE PTR -92[ebp], al
	movsx	edx, BYTE PTR -92[ebp]
	mov	ecx, DWORD PTR asciitable@GOT[ebx]
	mov	eax, edx
	sal	eax, 3
	add	eax, edx
	sal	eax, 2
	add	eax, ecx
	mov	edx, DWORD PTR [eax]
	mov	DWORD PTR -76[ebp], edx
	mov	edx, DWORD PTR 4[eax]
	mov	DWORD PTR -72[ebp], edx
	mov	edx, DWORD PTR 8[eax]
	mov	DWORD PTR -68[ebp], edx
	mov	edx, DWORD PTR 12[eax]
	mov	DWORD PTR -64[ebp], edx
	mov	edx, DWORD PTR 16[eax]
	mov	DWORD PTR -60[ebp], edx
	mov	edx, DWORD PTR 20[eax]
	mov	DWORD PTR -56[ebp], edx
	mov	edx, DWORD PTR 24[eax]
	mov	DWORD PTR -52[ebp], edx
	mov	edx, DWORD PTR 28[eax]
	mov	DWORD PTR -48[ebp], edx
	mov	eax, DWORD PTR 32[eax]
	mov	DWORD PTR -44[ebp], eax
	movzx	eax, BYTE PTR -76[ebp]
	test	al, al
	je	.L37
	cmp	DWORD PTR 20[ebp], 1
	jg	.L26
	mov	DWORD PTR -28[ebp], 0
.L31:
	cmp	DWORD PTR -28[ebp], 6
	jg	.L37
	mov	DWORD PTR -32[ebp], 0
.L30:
	cmp	DWORD PTR -32[ebp], 4
	jg	.L28
	mov	edx, DWORD PTR -28[ebp]
	mov	eax, edx
	sal	eax, 2
	add	eax, edx
	lea	esi, -24[ebp]
	lea	edx, [esi+eax]
	mov	eax, DWORD PTR -32[ebp]
	add	eax, edx
	sub	eax, 51
	movzx	eax, BYTE PTR [eax]
	test	al, al
	je	.L29
	mov	edx, DWORD PTR 12[ebp]
	mov	eax, DWORD PTR -28[ebp]
	add	edx, eax
	mov	ecx, DWORD PTR 8[ebp]
	mov	eax, DWORD PTR -32[ebp]
	add	eax, ecx
	sub	esp, 4
	push	DWORD PTR 16[ebp]
	push	edx
	push	eax
	call	_Z8setPixeliii@PLT
	add	esp, 16
.L29:
	add	DWORD PTR -32[ebp], 1
	jmp	.L30
.L28:
	add	DWORD PTR -28[ebp], 1
	jmp	.L31
.L26:
	mov	DWORD PTR -36[ebp], 0
.L36:
	cmp	DWORD PTR -36[ebp], 6
	jg	.L37
	mov	DWORD PTR -40[ebp], 0
.L35:
	cmp	DWORD PTR -40[ebp], 4
	jg	.L33
	mov	edx, DWORD PTR -36[ebp]
	mov	eax, edx
	sal	eax, 2
	add	eax, edx
	lea	edi, -24[ebp]
	lea	edx, [edi+eax]
	mov	eax, DWORD PTR -40[ebp]
	add	eax, edx
	sub	eax, 51
	movzx	eax, BYTE PTR [eax]
	test	al, al
	je	.L34
	mov	eax, DWORD PTR -36[ebp]
	imul	eax, DWORD PTR 20[ebp]
	mov	edx, eax
	mov	eax, DWORD PTR 12[ebp]
	add	edx, eax
	mov	eax, DWORD PTR 20[ebp]
	lea	esi, [edx+eax]
	mov	eax, DWORD PTR -40[ebp]
	imul	eax, DWORD PTR 20[ebp]
	mov	edx, eax
	mov	eax, DWORD PTR 8[ebp]
	add	edx, eax
	mov	eax, DWORD PTR 20[ebp]
	lea	ecx, [edx+eax]
	mov	eax, DWORD PTR -36[ebp]
	imul	eax, DWORD PTR 20[ebp]
	mov	edx, eax
	mov	eax, DWORD PTR 12[ebp]
	add	edx, eax
	mov	eax, DWORD PTR -40[ebp]
	imul	eax, DWORD PTR 20[ebp]
	mov	edi, eax
	mov	eax, DWORD PTR 8[ebp]
	add	eax, edi
	sub	esp, 12
	push	DWORD PTR 16[ebp]
	push	esi
	push	ecx
	push	edx
	push	eax
	call	_Z10drawSquareiiiii@PLT
	add	esp, 32
.L34:
	add	DWORD PTR -40[ebp], 1
	jmp	.L35
.L33:
	add	DWORD PTR -36[ebp], 1
	jmp	.L36
.L37:
	nop
	lea	esp, -12[ebp]
	pop	ebx
	.cfi_restore 3
	pop	esi
	.cfi_restore 6
	pop	edi
	.cfi_restore 7
	pop	ebp
	.cfi_restore 5
	.cfi_def_cfa 4, 4
	ret
	.cfi_endproc
.LFE7:
	.size	_Z8drawChariiiic, .-_Z8drawChariiiic
	.globl	_Z10drawStringPciiiii
	.type	_Z10drawStringPciiiii, @function
_Z10drawStringPciiiii:
.LFB8:
	.cfi_startproc
	push	ebp
	.cfi_def_cfa_offset 8
	.cfi_offset 5, -8
	mov	ebp, esp
	.cfi_def_cfa_register 5
	push	ebx
	sub	esp, 20
	.cfi_offset 3, -12
	call	__x86.get_pc_thunk.bx
	add	ebx, OFFSET FLAT:_GLOBAL_OFFSET_TABLE_
	mov	DWORD PTR -12[ebp], 0
	mov	eax, DWORD PTR 12[ebp]
	mov	DWORD PTR -16[ebp], eax
.L44:
	mov	edx, DWORD PTR -12[ebp]
	mov	eax, DWORD PTR 8[ebp]
	add	eax, edx
	movzx	eax, BYTE PTR [eax]
	test	al, al
	je	.L45
	mov	edx, DWORD PTR -12[ebp]
	mov	eax, DWORD PTR 8[ebp]
	add	eax, edx
	movzx	eax, BYTE PTR [eax]
	cmp	al, 32
	jne	.L40
	mov	edx, DWORD PTR 24[ebp]
	mov	eax, edx
	sal	eax, 2
	add	edx, eax
	mov	eax, DWORD PTR 28[ebp]
	add	eax, edx
	add	DWORD PTR 12[ebp], eax
	add	DWORD PTR -12[ebp], 1
	jmp	.L41
.L40:
	mov	edx, DWORD PTR -12[ebp]
	mov	eax, DWORD PTR 8[ebp]
	add	eax, edx
	movzx	eax, BYTE PTR [eax]
	cmp	al, 10
	jne	.L42
	mov	eax, DWORD PTR -16[ebp]
	mov	DWORD PTR 12[ebp], eax
	mov	edx, DWORD PTR 24[ebp]
	mov	eax, edx
	sal	eax, 3
	sub	eax, edx
	mov	edx, eax
	mov	eax, DWORD PTR 28[ebp]
	add	eax, edx
	add	DWORD PTR 16[ebp], eax
	add	DWORD PTR -12[ebp], 1
	jmp	.L41
.L42:
	mov	edx, DWORD PTR 24[ebp]
	mov	eax, edx
	sal	eax, 2
	add	edx, eax
	mov	eax, DWORD PTR 12[ebp]
	add	edx, eax
	mov	eax, DWORD PTR 28[ebp]
	add	eax, edx
	cmp	eax, 1024
	jle	.L43
	mov	eax, DWORD PTR -16[ebp]
	mov	DWORD PTR 12[ebp], eax
	mov	edx, DWORD PTR 24[ebp]
	mov	eax, edx
	sal	eax, 3
	sub	eax, edx
	mov	edx, eax
	mov	eax, DWORD PTR 28[ebp]
	add	eax, edx
	add	DWORD PTR 16[ebp], eax
.L43:
	mov	edx, DWORD PTR -12[ebp]
	mov	eax, DWORD PTR 8[ebp]
	add	eax, edx
	movzx	eax, BYTE PTR [eax]
	movsx	eax, al
	sub	esp, 12
	push	eax
	push	DWORD PTR 24[ebp]
	push	DWORD PTR 20[ebp]
	push	DWORD PTR 16[ebp]
	push	DWORD PTR 12[ebp]
	call	_Z8drawChariiiic@PLT
	add	esp, 32
	mov	edx, DWORD PTR 24[ebp]
	mov	eax, edx
	sal	eax, 2
	add	edx, eax
	mov	eax, DWORD PTR 28[ebp]
	add	eax, edx
	add	DWORD PTR 12[ebp], eax
	add	DWORD PTR -12[ebp], 1
.L41:
	jmp	.L44
.L45:
	nop
	mov	ebx, DWORD PTR -4[ebp]
	leave
	.cfi_restore 5
	.cfi_restore 3
	.cfi_def_cfa 4, 4
	ret
	.cfi_endproc
.LFE8:
	.size	_Z10drawStringPciiiii, .-_Z10drawStringPciiiii
	.globl	_Z8setPixeliii
	.type	_Z8setPixeliii, @function
_Z8setPixeliii:
.LFB9:
	.cfi_startproc
	push	ebp
	.cfi_def_cfa_offset 8
	.cfi_offset 5, -8
	mov	ebp, esp
	.cfi_def_cfa_register 5
	sub	esp, 16
	call	__x86.get_pc_thunk.ax
	add	eax, OFFSET FLAT:_GLOBAL_OFFSET_TABLE_
	mov	eax, DWORD PTR videoAddr@GOT[eax]
	mov	eax, DWORD PTR [eax]
	mov	DWORD PTR -4[ebp], eax
	mov	eax, DWORD PTR 12[ebp]
	sal	eax, 10
	mov	edx, eax
	mov	eax, DWORD PTR 8[ebp]
	add	edx, eax
	mov	eax, edx
	add	eax, eax
	add	eax, edx
	add	DWORD PTR -4[ebp], eax
	mov	eax, DWORD PTR -4[ebp]
	mov	edx, DWORD PTR 16[ebp]
	mov	DWORD PTR [eax], edx
	nop
	leave
	.cfi_restore 5
	.cfi_def_cfa 4, 4
	ret
	.cfi_endproc
.LFE9:
	.size	_Z8setPixeliii, .-_Z8setPixeliii
	.globl	_Z3absi
	.type	_Z3absi, @function
_Z3absi:
.LFB10:
	.cfi_startproc
	push	ebp
	.cfi_def_cfa_offset 8
	.cfi_offset 5, -8
	mov	ebp, esp
	.cfi_def_cfa_register 5
	call	__x86.get_pc_thunk.ax
	add	eax, OFFSET FLAT:_GLOBAL_OFFSET_TABLE_
	cmp	DWORD PTR 8[ebp], 0
	jle	.L48
	mov	eax, DWORD PTR 8[ebp]
	jmp	.L49
.L48:
	mov	eax, DWORD PTR 8[ebp]
	neg	eax
.L49:
	pop	ebp
	.cfi_restore 5
	.cfi_def_cfa 4, 4
	ret
	.cfi_endproc
.LFE10:
	.size	_Z3absi, .-_Z3absi
	.globl	_Z10drawCircleiiii
	.type	_Z10drawCircleiiii, @function
_Z10drawCircleiiii:
.LFB11:
	.cfi_startproc
	push	ebp
	.cfi_def_cfa_offset 8
	.cfi_offset 5, -8
	mov	ebp, esp
	.cfi_def_cfa_register 5
	push	ebx
	sub	esp, 20
	.cfi_offset 3, -12
	call	__x86.get_pc_thunk.bx
	add	ebx, OFFSET FLAT:_GLOBAL_OFFSET_TABLE_
	mov	DWORD PTR -12[ebp], 0
	mov	eax, DWORD PTR 8[ebp]
	mov	DWORD PTR -16[ebp], eax
	mov	eax, DWORD PTR 8[ebp]
	add	eax, eax
	mov	edx, 1
	sub	edx, eax
	mov	eax, edx
	mov	DWORD PTR -20[ebp], eax
	mov	DWORD PTR -24[ebp], 0
.L55:
	cmp	DWORD PTR -16[ebp], 0
	js	.L56
	mov	edx, DWORD PTR 16[ebp]
	mov	eax, DWORD PTR -16[ebp]
	add	edx, eax
	mov	ecx, DWORD PTR 12[ebp]
	mov	eax, DWORD PTR -12[ebp]
	add	eax, ecx
	sub	esp, 4
	push	DWORD PTR 20[ebp]
	push	edx
	push	eax
	call	_Z8setPixeliii@PLT
	add	esp, 16
	mov	eax, DWORD PTR 16[ebp]
	sub	eax, DWORD PTR -16[ebp]
	mov	ecx, DWORD PTR 12[ebp]
	mov	edx, DWORD PTR -12[ebp]
	add	edx, ecx
	sub	esp, 4
	push	DWORD PTR 20[ebp]
	push	eax
	push	edx
	call	_Z8setPixeliii@PLT
	add	esp, 16
	mov	edx, DWORD PTR 16[ebp]
	mov	eax, DWORD PTR -16[ebp]
	add	edx, eax
	mov	eax, DWORD PTR 12[ebp]
	sub	eax, DWORD PTR -12[ebp]
	sub	esp, 4
	push	DWORD PTR 20[ebp]
	push	edx
	push	eax
	call	_Z8setPixeliii@PLT
	add	esp, 16
	mov	eax, DWORD PTR 16[ebp]
	sub	eax, DWORD PTR -16[ebp]
	mov	edx, eax
	mov	eax, DWORD PTR 12[ebp]
	sub	eax, DWORD PTR -12[ebp]
	sub	esp, 4
	push	DWORD PTR 20[ebp]
	push	edx
	push	eax
	call	_Z8setPixeliii@PLT
	add	esp, 16
	mov	edx, DWORD PTR -20[ebp]
	mov	eax, DWORD PTR -16[ebp]
	add	eax, edx
	add	eax, eax
	sub	eax, 1
	mov	DWORD PTR -24[ebp], eax
	cmp	DWORD PTR -20[ebp], 0
	jns	.L52
	cmp	DWORD PTR -24[ebp], 0
	jg	.L52
	add	DWORD PTR -12[ebp], 1
	mov	eax, DWORD PTR -12[ebp]
	add	eax, eax
	add	eax, 1
	add	DWORD PTR -20[ebp], eax
	jmp	.L53
.L52:
	mov	eax, DWORD PTR -20[ebp]
	sub	eax, DWORD PTR -12[ebp]
	add	eax, eax
	sub	eax, 1
	mov	DWORD PTR -24[ebp], eax
	cmp	DWORD PTR -20[ebp], 0
	jle	.L54
	cmp	DWORD PTR -24[ebp], 0
	jle	.L54
	sub	DWORD PTR -16[ebp], 1
	mov	eax, DWORD PTR -16[ebp]
	add	eax, eax
	mov	edx, 1
	sub	edx, eax
	mov	eax, edx
	add	DWORD PTR -20[ebp], eax
	jmp	.L53
.L54:
	add	DWORD PTR -12[ebp], 1
	mov	eax, DWORD PTR -12[ebp]
	sub	eax, DWORD PTR -16[ebp]
	add	eax, eax
	add	DWORD PTR -20[ebp], eax
	sub	DWORD PTR -16[ebp], 1
.L53:
	jmp	.L55
.L56:
	nop
	mov	ebx, DWORD PTR -4[ebp]
	leave
	.cfi_restore 5
	.cfi_restore 3
	.cfi_def_cfa 4, 4
	ret
	.cfi_endproc
.LFE11:
	.size	_Z10drawCircleiiii, .-_Z10drawCircleiiii
	.globl	_Z14drawCircleFilliiii
	.type	_Z14drawCircleFilliiii, @function
_Z14drawCircleFilliiii:
.LFB12:
	.cfi_startproc
	push	ebp
	.cfi_def_cfa_offset 8
	.cfi_offset 5, -8
	mov	ebp, esp
	.cfi_def_cfa_register 5
	push	edi
	push	esi
	push	ebx
	sub	esp, 28
	.cfi_offset 7, -12
	.cfi_offset 6, -16
	.cfi_offset 3, -20
	call	__x86.get_pc_thunk.bx
	add	ebx, OFFSET FLAT:_GLOBAL_OFFSET_TABLE_
	mov	DWORD PTR -28[ebp], 0
	mov	eax, DWORD PTR 8[ebp]
	mov	DWORD PTR -32[ebp], eax
	mov	eax, DWORD PTR 8[ebp]
	add	eax, eax
	mov	edx, 1
	sub	edx, eax
	mov	eax, edx
	mov	DWORD PTR -36[ebp], eax
	mov	DWORD PTR -40[ebp], 0
.L62:
	cmp	DWORD PTR -32[ebp], 0
	js	.L63
	mov	eax, DWORD PTR 16[ebp]
	sub	eax, DWORD PTR -32[ebp]
	mov	ecx, DWORD PTR 12[ebp]
	mov	edx, DWORD PTR -28[ebp]
	lea	esi, [ecx+edx]
	mov	ecx, DWORD PTR 16[ebp]
	mov	edx, DWORD PTR -32[ebp]
	add	ecx, edx
	mov	edi, DWORD PTR 12[ebp]
	mov	edx, DWORD PTR -28[ebp]
	add	edx, edi
	sub	esp, 12
	push	DWORD PTR 20[ebp]
	push	eax
	push	esi
	push	ecx
	push	edx
	call	_Z8drawLineiiiii@PLT
	add	esp, 32
	mov	eax, DWORD PTR 16[ebp]
	sub	eax, DWORD PTR -32[ebp]
	mov	ecx, eax
	mov	eax, DWORD PTR 12[ebp]
	sub	eax, DWORD PTR -28[ebp]
	mov	edx, eax
	mov	esi, DWORD PTR 16[ebp]
	mov	eax, DWORD PTR -32[ebp]
	add	esi, eax
	mov	eax, DWORD PTR 12[ebp]
	sub	eax, DWORD PTR -28[ebp]
	sub	esp, 12
	push	DWORD PTR 20[ebp]
	push	ecx
	push	edx
	push	esi
	push	eax
	call	_Z8drawLineiiiii@PLT
	add	esp, 32
	mov	edx, DWORD PTR -36[ebp]
	mov	eax, DWORD PTR -32[ebp]
	add	eax, edx
	add	eax, eax
	sub	eax, 1
	mov	DWORD PTR -40[ebp], eax
	cmp	DWORD PTR -36[ebp], 0
	jns	.L59
	cmp	DWORD PTR -40[ebp], 0
	jg	.L59
	add	DWORD PTR -28[ebp], 1
	mov	eax, DWORD PTR -28[ebp]
	add	eax, eax
	add	eax, 1
	add	DWORD PTR -36[ebp], eax
	jmp	.L60
.L59:
	mov	eax, DWORD PTR -36[ebp]
	sub	eax, DWORD PTR -28[ebp]
	add	eax, eax
	sub	eax, 1
	mov	DWORD PTR -40[ebp], eax
	cmp	DWORD PTR -36[ebp], 0
	jle	.L61
	cmp	DWORD PTR -40[ebp], 0
	jle	.L61
	sub	DWORD PTR -32[ebp], 1
	mov	eax, DWORD PTR -32[ebp]
	add	eax, eax
	mov	edx, 1
	sub	edx, eax
	mov	eax, edx
	add	DWORD PTR -36[ebp], eax
	jmp	.L60
.L61:
	add	DWORD PTR -28[ebp], 1
	mov	eax, DWORD PTR -28[ebp]
	sub	eax, DWORD PTR -32[ebp]
	add	eax, eax
	add	DWORD PTR -36[ebp], eax
	sub	DWORD PTR -32[ebp], 1
.L60:
	jmp	.L62
.L63:
	nop
	lea	esp, -12[ebp]
	pop	ebx
	.cfi_restore 3
	pop	esi
	.cfi_restore 6
	pop	edi
	.cfi_restore 7
	pop	ebp
	.cfi_restore 5
	.cfi_def_cfa 4, 4
	ret
	.cfi_endproc
.LFE12:
	.size	_Z14drawCircleFilliiii, .-_Z14drawCircleFilliiii
	.globl	_Z11drawLineLowiiiii
	.type	_Z11drawLineLowiiiii, @function
_Z11drawLineLowiiiii:
.LFB13:
	.cfi_startproc
	push	ebp
	.cfi_def_cfa_offset 8
	.cfi_offset 5, -8
	mov	ebp, esp
	.cfi_def_cfa_register 5
	push	ebx
	sub	esp, 36
	.cfi_offset 3, -12
	call	__x86.get_pc_thunk.bx
	add	ebx, OFFSET FLAT:_GLOBAL_OFFSET_TABLE_
	mov	eax, DWORD PTR 16[ebp]
	sub	eax, DWORD PTR 8[ebp]
	mov	DWORD PTR -32[ebp], eax
	mov	eax, DWORD PTR 20[ebp]
	sub	eax, DWORD PTR 12[ebp]
	mov	DWORD PTR -12[ebp], eax
	mov	DWORD PTR -16[ebp], 1
	cmp	DWORD PTR -12[ebp], 0
	jns	.L65
	mov	DWORD PTR -16[ebp], -1
	neg	DWORD PTR -12[ebp]
.L65:
	mov	eax, DWORD PTR -12[ebp]
	add	eax, eax
	sub	eax, DWORD PTR -32[ebp]
	mov	DWORD PTR -20[ebp], eax
	mov	eax, DWORD PTR 12[ebp]
	mov	DWORD PTR -24[ebp], eax
	mov	eax, DWORD PTR 8[ebp]
	mov	DWORD PTR -28[ebp], eax
.L68:
	mov	eax, DWORD PTR -28[ebp]
	cmp	eax, DWORD PTR 16[ebp]
	jge	.L69
	sub	esp, 4
	push	DWORD PTR 24[ebp]
	push	DWORD PTR -24[ebp]
	push	DWORD PTR -28[ebp]
	call	_Z8setPixeliii@PLT
	add	esp, 16
	cmp	DWORD PTR -20[ebp], 0
	jle	.L67
	mov	eax, DWORD PTR -16[ebp]
	add	DWORD PTR -24[ebp], eax
	mov	eax, DWORD PTR -32[ebp]
	add	eax, eax
	sub	DWORD PTR -20[ebp], eax
.L67:
	mov	eax, DWORD PTR -12[ebp]
	add	eax, eax
	add	DWORD PTR -20[ebp], eax
	add	DWORD PTR -28[ebp], 1
	jmp	.L68
.L69:
	nop
	mov	ebx, DWORD PTR -4[ebp]
	leave
	.cfi_restore 5
	.cfi_restore 3
	.cfi_def_cfa 4, 4
	ret
	.cfi_endproc
.LFE13:
	.size	_Z11drawLineLowiiiii, .-_Z11drawLineLowiiiii
	.globl	_Z12drawLineHighiiiii
	.type	_Z12drawLineHighiiiii, @function
_Z12drawLineHighiiiii:
.LFB14:
	.cfi_startproc
	push	ebp
	.cfi_def_cfa_offset 8
	.cfi_offset 5, -8
	mov	ebp, esp
	.cfi_def_cfa_register 5
	push	ebx
	sub	esp, 36
	.cfi_offset 3, -12
	call	__x86.get_pc_thunk.bx
	add	ebx, OFFSET FLAT:_GLOBAL_OFFSET_TABLE_
	mov	eax, DWORD PTR 16[ebp]
	sub	eax, DWORD PTR 8[ebp]
	mov	DWORD PTR -12[ebp], eax
	mov	eax, DWORD PTR 20[ebp]
	sub	eax, DWORD PTR 12[ebp]
	mov	DWORD PTR -32[ebp], eax
	mov	DWORD PTR -16[ebp], 1
	cmp	DWORD PTR -12[ebp], 0
	jns	.L71
	mov	DWORD PTR -16[ebp], -1
	neg	DWORD PTR -12[ebp]
.L71:
	mov	eax, DWORD PTR -12[ebp]
	add	eax, eax
	sub	eax, DWORD PTR -32[ebp]
	mov	DWORD PTR -20[ebp], eax
	mov	eax, DWORD PTR 8[ebp]
	mov	DWORD PTR -24[ebp], eax
	mov	eax, DWORD PTR 12[ebp]
	mov	DWORD PTR -28[ebp], eax
.L74:
	mov	eax, DWORD PTR -28[ebp]
	cmp	eax, DWORD PTR 20[ebp]
	jge	.L75
	sub	esp, 4
	push	DWORD PTR 24[ebp]
	push	DWORD PTR -28[ebp]
	push	DWORD PTR -24[ebp]
	call	_Z8setPixeliii@PLT
	add	esp, 16
	cmp	DWORD PTR -20[ebp], 0
	jle	.L73
	mov	eax, DWORD PTR -16[ebp]
	add	DWORD PTR -24[ebp], eax
	mov	eax, DWORD PTR -32[ebp]
	add	eax, eax
	sub	DWORD PTR -20[ebp], eax
.L73:
	mov	eax, DWORD PTR -12[ebp]
	add	eax, eax
	add	DWORD PTR -20[ebp], eax
	add	DWORD PTR -28[ebp], 1
	jmp	.L74
.L75:
	nop
	mov	ebx, DWORD PTR -4[ebp]
	leave
	.cfi_restore 5
	.cfi_restore 3
	.cfi_def_cfa 4, 4
	ret
	.cfi_endproc
.LFE14:
	.size	_Z12drawLineHighiiiii, .-_Z12drawLineHighiiiii
	.globl	_Z8drawLineiiiii
	.type	_Z8drawLineiiiii, @function
_Z8drawLineiiiii:
.LFB15:
	.cfi_startproc
	push	ebp
	.cfi_def_cfa_offset 8
	.cfi_offset 5, -8
	mov	ebp, esp
	.cfi_def_cfa_register 5
	push	esi
	push	ebx
	.cfi_offset 6, -12
	.cfi_offset 3, -16
	call	__x86.get_pc_thunk.bx
	add	ebx, OFFSET FLAT:_GLOBAL_OFFSET_TABLE_
	mov	eax, DWORD PTR 20[ebp]
	sub	eax, DWORD PTR 12[ebp]
	sub	esp, 12
	push	eax
	call	_Z3absi@PLT
	add	esp, 16
	mov	esi, eax
	mov	eax, DWORD PTR 16[ebp]
	sub	eax, DWORD PTR 8[ebp]
	sub	esp, 12
	push	eax
	call	_Z3absi@PLT
	add	esp, 16
	cmp	esi, eax
	setl	al
	test	al, al
	je	.L77
	mov	eax, DWORD PTR 8[ebp]
	cmp	eax, DWORD PTR 16[ebp]
	jle	.L78
	sub	esp, 12
	push	DWORD PTR 24[ebp]
	push	DWORD PTR 12[ebp]
	push	DWORD PTR 8[ebp]
	push	DWORD PTR 20[ebp]
	push	DWORD PTR 16[ebp]
	call	_Z11drawLineLowiiiii@PLT
	add	esp, 32
	jmp	.L82
.L78:
	sub	esp, 12
	push	DWORD PTR 24[ebp]
	push	DWORD PTR 20[ebp]
	push	DWORD PTR 16[ebp]
	push	DWORD PTR 12[ebp]
	push	DWORD PTR 8[ebp]
	call	_Z11drawLineLowiiiii@PLT
	add	esp, 32
	jmp	.L82
.L77:
	mov	eax, DWORD PTR 12[ebp]
	cmp	eax, DWORD PTR 20[ebp]
	jle	.L81
	sub	esp, 12
	push	DWORD PTR 24[ebp]
	push	DWORD PTR 12[ebp]
	push	DWORD PTR 8[ebp]
	push	DWORD PTR 20[ebp]
	push	DWORD PTR 16[ebp]
	call	_Z12drawLineHighiiiii@PLT
	add	esp, 32
	jmp	.L82
.L81:
	sub	esp, 12
	push	DWORD PTR 24[ebp]
	push	DWORD PTR 20[ebp]
	push	DWORD PTR 16[ebp]
	push	DWORD PTR 12[ebp]
	push	DWORD PTR 8[ebp]
	call	_Z12drawLineHighiiiii@PLT
	add	esp, 32
.L82:
	nop
	lea	esp, -8[ebp]
	pop	ebx
	.cfi_restore 3
	pop	esi
	.cfi_restore 6
	pop	ebp
	.cfi_restore 5
	.cfi_def_cfa 4, 4
	ret
	.cfi_endproc
.LFE15:
	.size	_Z8drawLineiiiii, .-_Z8drawLineiiiii
	.globl	_Z10drawSquareiiiii
	.type	_Z10drawSquareiiiii, @function
_Z10drawSquareiiiii:
.LFB16:
	.cfi_startproc
	push	ebp
	.cfi_def_cfa_offset 8
	.cfi_offset 5, -8
	mov	ebp, esp
	.cfi_def_cfa_register 5
	push	ebx
	sub	esp, 20
	.cfi_offset 3, -12
	call	__x86.get_pc_thunk.bx
	add	ebx, OFFSET FLAT:_GLOBAL_OFFSET_TABLE_
	mov	eax, DWORD PTR 12[ebp]
	mov	DWORD PTR -12[ebp], eax
.L87:
	mov	eax, DWORD PTR -12[ebp]
	cmp	eax, DWORD PTR 20[ebp]
	jge	.L88
	mov	eax, DWORD PTR 8[ebp]
	mov	DWORD PTR -16[ebp], eax
.L86:
	mov	eax, DWORD PTR -16[ebp]
	cmp	eax, DWORD PTR 16[ebp]
	jge	.L85
	sub	esp, 4
	push	DWORD PTR 24[ebp]
	push	DWORD PTR -12[ebp]
	push	DWORD PTR -16[ebp]
	call	_Z8setPixeliii@PLT
	add	esp, 16
	add	DWORD PTR -16[ebp], 1
	jmp	.L86
.L85:
	add	DWORD PTR -12[ebp], 1
	jmp	.L87
.L88:
	nop
	mov	ebx, DWORD PTR -4[ebp]
	leave
	.cfi_restore 5
	.cfi_restore 3
	.cfi_def_cfa 4, 4
	ret
	.cfi_endproc
.LFE16:
	.size	_Z10drawSquareiiiii, .-_Z10drawSquareiiiii
	.globl	_Z14drawBackGroundi
	.type	_Z14drawBackGroundi, @function
_Z14drawBackGroundi:
.LFB17:
	.cfi_startproc
	push	ebp
	.cfi_def_cfa_offset 8
	.cfi_offset 5, -8
	mov	ebp, esp
	.cfi_def_cfa_register 5
	push	ebx
	sub	esp, 20
	.cfi_offset 3, -12
	call	__x86.get_pc_thunk.bx
	add	ebx, OFFSET FLAT:_GLOBAL_OFFSET_TABLE_
	mov	eax, DWORD PTR 8[ebp]
	mov	DWORD PTR -20[ebp], eax
	mov	DWORD PTR -12[ebp], 0
.L94:
	cmp	DWORD PTR -12[ebp], 767
	jg	.L95
	mov	DWORD PTR -16[ebp], 0
.L93:
	cmp	DWORD PTR -16[ebp], 1023
	jg	.L91
	sub	esp, 4
	push	DWORD PTR 8[ebp]
	push	DWORD PTR -12[ebp]
	push	DWORD PTR -16[ebp]
	call	_Z8setPixeliii@PLT
	add	esp, 16
	mov	ecx, DWORD PTR -16[ebp]
	mov	edx, 1717986919
	mov	eax, ecx
	imul	edx
	sar	edx
	mov	eax, ecx
	sar	eax, 31
	sub	edx, eax
	mov	eax, edx
	mov	edx, eax
	sal	edx, 2
	add	edx, eax
	mov	eax, ecx
	sub	eax, edx
	test	eax, eax
	jne	.L92
	add	DWORD PTR 8[ebp], 256
.L92:
	add	DWORD PTR -16[ebp], 1
	jmp	.L93
.L91:
	mov	eax, DWORD PTR -20[ebp]
	mov	DWORD PTR 8[ebp], eax
	add	DWORD PTR -12[ebp], 1
	jmp	.L94
.L95:
	nop
	mov	ebx, DWORD PTR -4[ebp]
	leave
	.cfi_restore 5
	.cfi_restore 3
	.cfi_def_cfa 4, 4
	ret
	.cfi_endproc
.LFE17:
	.size	_Z14drawBackGroundi, .-_Z14drawBackGroundi
	.section	.text.__x86.get_pc_thunk.ax,"axG",@progbits,__x86.get_pc_thunk.ax,comdat
	.globl	__x86.get_pc_thunk.ax
	.hidden	__x86.get_pc_thunk.ax
	.type	__x86.get_pc_thunk.ax, @function
__x86.get_pc_thunk.ax:
.LFB18:
	.cfi_startproc
	mov	eax, DWORD PTR [esp]
	ret
	.cfi_endproc
.LFE18:
	.section	.text.__x86.get_pc_thunk.bx,"axG",@progbits,__x86.get_pc_thunk.bx,comdat
	.globl	__x86.get_pc_thunk.bx
	.hidden	__x86.get_pc_thunk.bx
	.type	__x86.get_pc_thunk.bx, @function
__x86.get_pc_thunk.bx:
.LFB19:
	.cfi_startproc
	mov	ebx, DWORD PTR [esp]
	ret
	.cfi_endproc
.LFE19:
	.ident	"GCC: (Debian 7.3.0-21) 7.3.0"
	.section	.note.GNU-stack,"",@progbits
